(dp0
S'entr_model'
p1
(dp2
S'\x81'
p3
F9.786786057627141e-08
sS'\x82'
p4
F9.786786057627141e-08
sS'!'
p5
F3.9147144230508564e-07
sS' '
p6
F0.00013329602610488166
sS'#'
p7
F1.8497025648915296e-05
sS'%'
p8
F5.872071634576284e-07
sS'$'
p9
F4.599789447084757e-06
sS"'"
p10
F3.9147144230508564e-07
sS'&'
p11
F1.2722821874915283e-06
sS')'
p12
F4.208318004779671e-06
sS'('
p13
F4.306185865355942e-06
sS'+'
p14
F2.3879757980610223e-05
sS'-'
p15
F0.02776746087414203
sS','
p16
F5.382732331694928e-06
sS'.'
p17
F0.049715013683394926
sS'1'
p18
F0.04361109308711345
sS'0'
p19
F0.04685433611875051
sS'3'
p20
F0.06505345200007163
sS'2'
p21
F0.01320452748467169
sS'5'
p22
F0.03562037800678205
sS'4'
p23
F0.03850963298671473
sS'7'
p24
F0.014518697116489863
sS'6'
p25
F0.04667269336952096
sS'9'
p26
F0.020660394706953775
sS'8'
p27
F0.026761575003139113
sS';'
p28
F1.2233482572033926e-05
sS'='
p29
F3.2296393990169566e-06
sS'@'
p30
F6.26354307688137e-06
sS'\xa0'
p31
F1.9573572115254282e-07
sS'\xa1'
p32
F1.9573572115254282e-07
sS'['
p33
F4.89339302881357e-07
sS']'
p34
F4.89339302881357e-07
sS'_'
p35
F0.05292821128183507
sS'\xa4'
p36
F9.786786057627141e-08
sS'a'
p37
F0.03965732938769267
sS'c'
p38
F0.03428350303131018
sS'b'
p39
F0.024167685226425616
sS'e'
p40
F0.0561575570772703
sS'd'
p41
F0.042871603532599147
sS'g'
p42
F0.0031103384769744814
sS'f'
p43
F0.03635507203612812
sS'i'
p44
F0.02946781708379417
sS'h'
p45
F0.0029097093627931253
sS'k'
p46
F0.0018176997744830889
sS'j'
p47
F0.001045326618815155
sS'm'
p48
F0.02194226794478178
sS'l'
p49
F0.007806821370308594
sS'o'
p50
F0.043269827857284
sS'n'
p51
F0.02901919081091254
sS'q'
p52
F0.0002488779694454582
sS'p'
p53
F0.006583473113105202
sS's'
p54
F0.042557056228707014
sS'r'
p55
F0.03158460104019834
sS'u'
p56
F0.011459249927015042
sS't'
p57
F0.020200611497966453
sS'w'
p58
F0.02064904203512693
sS'v'
p59
F0.0030229424774798714
sS'y'
p60
F0.0024335822210895647
sS'x'
p61
F0.003914127215887399
sS'{'
p62
F5.881858420633912e-05
sS'z'
p63
F0.0012373433612657995
sS'}'
p64
F5.881858420633912e-05
sS'~'
p65
F1.2037746850881383e-05
ssS'transition_probs'
p66
(dp67
g3
(dp68
g40
F0.0
ssg4
(dp69
g42
F0.0
ssg5
(dp70
g18
F-1.3862943611198906
sg19
F-0.2876820724517809
ssg6
(dp71
g6
F-6.118097198041348
sg7
F-6.523562306149512
sg11
F-5.424950017481403
sg13
F-3.605791574065233
sg15
F-2.6841099935562016
sg18
F-4.651760129247921
sg20
F-5.137267945029622
sg21
F-3.9586129486879758
sg22
F-5.607271574275357
sg23
F-4.914124393715412
sg25
F-5.270799337654144
sg27
F-4.651760129247921
sg33
F-6.523562306149512
sg37
F-2.8729040648557738
sg38
F-2.3646792227898406
sg39
F-3.7509735839097313
sg40
F-3.2848838539851317
sg41
F-2.8859761464231264
sg42
F-4.383496142653241
sg43
F-3.0270547446830323
sg44
F-3.4325198527911964
sg45
F-4.220977213155467
sg46
F-5.019484909373238
sg47
F-4.818814213911087
sg48
F-2.997201781533351
sg49
F-3.720201925242977
sg50
F-3.8494136567229837
sg51
F-4.272270507543017
sg52
F-6.523562306149512
sg53
F-2.525361604480314
sg54
F-2.246896187133457
sg55
F-3.2277254401451834
sg56
F-4.220977213155467
sg57
F-3.2654657681280304
sg58
F-4.038655656361512
sg59
F-3.8845049765342536
sg60
F-4.818814213911087
sg61
F-4.818814213911087
sg63
F-6.523562306149512
ssg7
(dp72
g5
F-3.855452653939752
sg37
F-4.143134726391533
sg38
F-5.241747015059643
sg39
F-5.241747015059643
sg40
F-5.241747015059643
sg6
F-5.241747015059643
sg19
F-3.4499875458315876
sS'*'
p73
F-0.17284281283941083
sg7
F-5.241747015059643
sg24
F-5.241747015059643
sg18
F-4.143134726391533
sg53
F-5.241747015059643
sg54
F-4.143134726391533
sg21
F-5.241747015059643
sg58
F-5.241747015059643
sg25
F-5.241747015059643
sg49
F-5.241747015059643
ssg8
(dp74
g73
F-1.0986122886681098
sg54
F-1.791759469228055
sg21
F-1.0986122886681098
sg49
F-1.791759469228055
ssg9
(dp75
g73
F-3.1570004211501135
sg55
F-0.08894748601649617
sg58
F-3.8501476017100584
sg53
F-3.8501476017100584
ssg10
(dp76
g6
F-1.3862943611198906
sg54
F-0.2876820724517809
ssg11
(dp77
g6
F-0.7731898882334817
sg38
F-2.5649493574615367
sg41
F-1.8718021769015913
sg43
F-2.5649493574615367
sg54
F-2.5649493574615367
sg55
F-2.5649493574615367
sg59
F-2.5649493574615367
ssg12
(dp78
g6
F-1.1962507582320256
sg73
F-0.4653632496892333
sg15
F-3.068052935133617
sg17
F-3.7612001156935624
ssg13
(dp79
g37
F-3.784189633918261
sg38
F-2.6855773452501515
sg39
F-3.0910424533583156
sg40
F-2.3978952727983707
sg41
F-3.784189633918261
sg20
F-3.784189633918261
sg47
F-3.784189633918261
sg49
F-3.0910424533583156
sg18
F-2.3978952727983707
sg53
F-2.3978952727983707
sg54
F-2.174751721484161
sg21
F-2.174751721484161
sg56
F-3.0910424533583156
sg57
F-3.784189633918261
sg25
F-3.784189633918261
sg26
F-3.784189633918261
sg61
F-2.6855773452501515
sg55
F-2.6855773452501515
ssg14
(dp80
g37
F-4.804021044733257
sg6
F-4.110873864173311
sg38
F-3.7054087560651467
sg39
F-5.497168225293202
sg41
F-5.497168225293202
sg43
F-4.398555936625092
sg44
F-5.497168225293202
sg45
F-4.804021044733257
sg14
F-0.5918934468547724
sg73
F-4.110873864173311
sg48
F-4.804021044733257
sg49
F-2.663954881236986
sg50
F-4.804021044733257
sg15
F-4.804021044733257
sg53
F-4.398555936625092
sg54
F-2.4526457875697787
sg56
F-5.497168225293202
sg57
F-4.110873864173311
sg58
F-2.031432322493475
sg59
F-5.497168225293202
ssg73
(dp81
g7
F-8.767733987187336
sg8
F-11.070319080181381
sg9
F-7.956803770971007
sg13
F-11.070319080181381
sg15
F-9.055416059639116
sg17
F-7.604583177381655
sg18
F-5.376586941378682
sg19
F-5.911263780966853
sg20
F-5.764529698794644
sg21
F-5.513491018481844
sg22
F-6.110977080472677
sg23
F-6.19512175698023
sg24
F-6.258134724808964
sg25
F-6.153994465556367
sg26
F-6.202784629725799
sg27
F-6.179969951959628
sg30
F-9.566241683405108
sg35
F-7.19911806927349
sg37
F-0.6866146070739808
sg38
F-4.4697685401398894
sg39
F-5.31457686659447
sg40
F-5.238436602897865
sg41
F-4.98468136305615
sg42
F-5.630068217744678
sg43
F-5.407358600045436
sg44
F-5.381650243335229
sg45
F-5.645369062699979
sg46
F-6.7008712277143605
sg47
F-6.308145145383626
sg48
F-2.5704755271002573
sg49
F-5.018229911256965
sg50
F-5.852669616700799
sg51
F-4.016301294220993
sg52
F-7.652592396568016
sg53
F-4.656860123014025
sg54
F-4.407186384190578
sg55
F-5.433745355218631
sg56
F-6.007724047154415
sg57
F-4.51852471440432
sg58
F-2.274888275141363
sg59
F-4.2287036037037895
sg60
F-8.099904614611681
sg61
F-1.8721018980075095
sg62
F-5.471897121183007
sg63
F-7.620331534349794
sg65
F-11.763466260741327
ssg15
(dp82
g6
F-8.012462431353518
sg73
F-7.431793234220263
sg15
F-9.990807856161984
sg17
F-6.741626681798455
sg18
F-6.080324496919432
sg19
F-5.209747003710229
sg20
F-7.3408214560145355
sg21
F-6.405154445177242
sg22
F-7.592912583363614
sg23
F-5.747822269923596
sg24
F-7.468160878391138
sg25
F-7.64310232788747
sg26
F-6.672434825135243
sg27
F-6.607722224442876
sg30
F-10.763997744395466
sg35
F-8.336249508447414
sg37
F-3.3208217947919585
sg38
F-2.773759558675103
sg39
F-4.163900513518581
sg40
F-3.493105114546943
sg41
F-2.7245178252950177
sg42
F-4.4429297348721475
sg43
F-3.216408161083805
sg44
F-3.1283718487949983
sg45
F-4.335354113689792
sg46
F-4.777127066297712
sg47
F-4.050029500316562
sg48
F-3.0116625810931748
sg49
F-4.379928204908925
sg50
F-4.690953210295062
sg51
F-4.032581950529736
sg52
F-7.014493668465096
sg53
F-3.5610883781228475
sg54
F-2.4898107333896906
sg55
F-3.368787827970579
sg56
F-2.880174529503314
sg57
F-3.3109188012397714
sg58
F-1.2254333446545664
sg59
F-4.582257249598892
sg60
F-9.121770009138375
sg61
F-5.830723571456679
sg62
F-12.555757213623522
sg63
F-7.287899054560193
ssg16
(dp83
g40
F-1.1169614273363062
sg38
F-2.908720896564361
sg15
F-2.2155737160044158
sg57
F-1.1169614273363062
sg6
F-1.7047480922384253
ssg17
(dp84
g15
F-4.984849566287467
sg17
F-2.3819147736607484
sg18
F-1.5076508364611132
sg19
F-1.158625853883758
sg20
F-3.482468251329693
sg21
F-5.3022247425647935
sg22
F-6.172175137180247
sg23
F-6.290194049709997
sg24
F-7.105113102487558
sg25
F-5.824312492652898
sg26
F-3.1458313092563572
sg27
F-5.631058244558751
sg35
F-9.474637678156713
sg37
F-4.637542101510221
sg38
F-4.494373481936756
sg39
F-6.270224915316067
sg40
F-4.60848485231645
sg41
F-4.803007740853157
sg42
F-6.16840865438477
sg43
F-6.317091852029894
sg44
F-3.543481296532497
sg45
F-6.626453994641632
sg46
F-6.874801061694735
sg47
F-8.020205511869605
sg48
F-5.288875506245799
sg49
F-4.848659839662218
sg50
F-5.00314541567479
sg51
F-4.9697129071596775
sg52
F-8.410811505574019
sg53
F-5.07765927774772
sg54
F-4.681393282885217
sg55
F-2.057257495985104
sg56
F-6.204776298555645
sg57
F-4.522972392598756
sg58
F-4.6957296790660585
sg59
F-5.684637452642987
sg60
F-6.970682833398018
sg61
F-6.139689682035758
sg62
F-9.84236245828203
sg63
F-8.218218398458234
ssg18
(dp85
g6
F-11.620909536094763
sg7
F-10.704618804220607
sg12
F-11.908591608546542
sg14
F-13.007203897214653
sg73
F-4.126201272959083
sg15
F-7.0565613446269255
sg17
F-4.283159151261183
sg18
F-2.9566766020292095
sg19
F-1.4194678498362487
sg20
F-3.911489051079773
sg21
F-3.964808916087917
sg22
F-3.6097202781653017
sg23
F-1.8062122144984973
sg24
F-3.381778173753315
sg25
F-3.3122792126777063
sg26
F-3.8130945383488872
sg27
F-3.663732212635287
sg35
F-5.22899242270216
sg37
F-4.117068789395811
sg38
F-4.131357719476055
sg39
F-1.5195244479340477
sg40
F-4.174032764191787
sg41
F-3.2420592943002693
sg42
F-10.011471623660661
sg43
F-4.188425728177643
sg44
F-9.962681459491229
sg45
F-8.612754742542213
sg46
F-10.927762355534817
sg47
F-11.908591608546542
sg48
F-11.908591608546542
sg49
F-10.809979319878433
sg50
F-11.06129374815934
sg51
F-11.908591608546542
sg52
F-11.215444427986597
sg53
F-11.620909536094763
sg54
F-10.368146567599394
sg55
F-11.397765984780552
sg56
F-10.368146567599394
sg57
F-11.397765984780552
sg58
F-10.609308624416283
sg60
F-9.962681459491229
sg61
F-9.343642251085006
sg63
F-12.314056716654708
sg64
F-9.48084337259849
ssg19
(dp86
g6
F-10.594029258459656
sg7
F-11.133025759192344
sg11
F-12.385788727687713
sg12
F-13.078935908247658
sg73
F-4.120524439017438
sg15
F-5.219136727685547
sg17
F-0.9555711855904817
sg18
F-3.942134439606345
sg19
F-2.33662199162111
sg20
F-3.326620143513268
sg21
F-4.0550456036492095
sg22
F-2.685887227250263
sg23
F-4.051437228312317
sg24
F-4.1161598621273665
sg25
F-3.7424035110337153
sg26
F-4.131519957597529
sg27
F-3.8232398345506775
sg35
F-1.871015021071959
sg37
F-3.3738383206845484
sg38
F-4.177705556136876
sg39
F-4.241545052702959
sg40
F-4.256761147301578
sg41
F-4.2576461031115445
sg42
F-10.999494366567822
sg43
F-4.263120704341304
sg44
F-11.980323619579547
sg45
F-11.692641547127767
sg46
F-12.385788727687713
sg47
F-10.681040635449287
sg48
F-11.692641547127767
sg49
F-10.370885707145447
sg50
F-10.776350815253611
sg51
F-11.980323619579547
sg52
F-11.692641547127767
sg53
F-10.999494366567822
sg54
F-11.692641547127767
sg55
F-11.980323619579547
sg56
F-9.783099042243329
sg57
F-11.692641547127767
sg58
F-10.999494366567822
sg59
F-9.552575383631495
sg60
F-11.980323619579547
sg61
F-8.66009530045106
sg63
F-12.385788727687713
sg64
F-9.441349748521272
ssg20
(dp87
g6
F-12.308489332372758
sg7
F-11.461191471985556
sg12
F-13.40710162104087
sg73
F-4.535876976631316
sg15
F-7.877672533529445
sg17
F-2.1892320148523665
sg18
F-1.899138447900455
sg19
F-3.9531878162389678
sg20
F-4.521937525944047
sg21
F-4.259594558236255
sg22
F-1.9048024153119403
sg23
F-4.263007894883612
sg24
F-4.399244697682593
sg25
F-1.9177621312101711
sg26
F-2.291137523687584
sg27
F-1.838013237571795
sg35
F-5.040266311213193
sg37
F-3.6536814297693625
sg38
F-4.553579060351328
sg39
F-4.578607491574216
sg40
F-4.595151443500888
sg41
F-4.4078527193547545
sg42
F-9.158606378991509
sg43
F-3.71162273223468
sg44
F-9.718222166926932
sg45
F-10.842152263579331
sg46
F-11.615342151812813
sg47
F-13.40710162104087
sg48
F-10.516729863144704
sg49
F-11.104516528046823
sg50
F-12.713954440480924
sg51
F-12.308489332372758
sg52
F-11.327660079361033
sg53
F-12.020807259920979
sg54
F-9.089613507504557
sg55
F-11.461191471985556
sg56
F-9.55695401933081
sg57
F-11.104516528046823
sg58
F-9.769515461314482
sg59
F-12.308489332372758
sg60
F-12.308489332372758
sg61
F-9.55695401933081
sg63
F-13.40710162104087
sg64
F-9.69352955433656
ssg21
(dp88
g6
F-11.119304932104942
sg7
F-9.327545462876888
sg11
F-11.119304932104942
sg12
F-11.812452112664888
sg73
F-2.9146331031541317
sg15
F-4.944477703694595
sg17
F-4.011060792373402
sg18
F-2.8900605153690306
sg19
F-2.4477610808587804
sg20
F-2.903351977739337
sg21
F-2.8978259848377506
sg22
F-2.9158640408736702
sg23
F-2.953514890698339
sg24
F-2.9253519085412
sg25
F-2.8946053701377084
sg26
F-2.971293136719623
sg27
F-2.9164116110447784
sg35
F-3.7272733645903515
sg37
F-2.9327013141517626
sg38
F-2.8868647736346063
sg39
F-2.9701365658230245
sg40
F-2.9617911936477364
sg41
F-2.964086417722341
sg42
F-7.962304510954829
sg43
F-2.953514890698339
sg44
F-7.563956870615529
sg45
F-10.203014200230788
sg46
F-7.227484633994316
sg47
F-10.713839823996778
sg48
F-9.104401911562677
sg49
F-11.119304932104942
sg50
F-10.020692643436833
sg51
F-8.09888004596058
sg52
F-11.812452112664888
sg53
F-6.3875020951834856
sg54
F-7.0002677572924705
sg55
F-7.669317386273355
sg56
F-8.554355574643406
sg57
F-6.7625961054153505
sg58
F-8.554355574643406
sg59
F-8.922080354768724
sg60
F-11.119304932104942
sg61
F-7.269157330394884
sg63
F-10.713839823996778
sg64
F-8.201534200020664
ssg22
(dp89
g6
F-12.111663060068995
sg7
F-10.40691496783057
sg73
F-3.8999086626937975
sg15
F-7.0554172547206875
sg17
F-4.08451295323622
sg18
F-3.9030351520209625
sg19
F-3.0480840694882163
sg20
F-3.700274927549734
sg21
F-3.944311073012925
sg22
F-3.948719185376652
sg23
F-3.9394986079570913
sg24
F-3.8460128944886653
sg25
F-1.2941272882114923
sg26
F-3.7179943549382553
sg27
F-2.5917079056414822
sg35
F-1.3290987037527557
sg37
F-3.8920676058919152
sg38
F-3.7185602538838083
sg39
F-3.7891474476562963
sg40
F-4.011198169039633
sg41
F-3.8942245223388077
sg42
F-10.858900091573627
sg43
F-3.1041122935266308
sg44
F-11.013050771400886
sg45
F-11.706197951960831
sg46
F-12.80481024062894
sg47
F-12.111663060068995
sg48
F-11.195372328194841
sg49
F-7.017912859262233
sg50
F-11.41851587950905
sg51
F-8.398090993364688
sg52
F-12.80481024062894
sg53
F-11.706197951960831
sg54
F-11.195372328194841
sg55
F-12.111663060068995
sg56
F-10.858900091573627
sg57
F-10.31990359084094
sg58
F-8.976168844139846
sg59
F-11.706197951960831
sg60
F-12.80481024062894
sg61
F-10.725368698949104
sg63
F-11.195372328194841
sg64
F-9.115930786515005
ssg23
(dp90
g6
F-12.882800768061824
sg7
F-10.685576190725605
sg12
F-11.784188479393714
sg73
F-4.007933132373771
sg15
F-4.137038768686312
sg17
F-3.611929896345609
sg18
F-3.4627668924958357
sg19
F-3.9183609345224673
sg20
F-1.7065795666289716
sg21
F-3.948213897672148
sg22
F-3.9513809628688494
sg23
F-3.806906492638564
sg24
F-3.9108444968161358
sg25
F-4.023437318909735
sg26
F-3.9265787516992816
sg27
F-3.9606759441435657
sg35
F-1.5001206720390747
sg37
F-3.954823307059822
sg38
F-3.9247753247001307
sg39
F-4.067282344095326
sg40
F-1.3769905565771967
sg41
F-3.9625453531537325
sg42
F-11.784188479393714
sg43
F-4.058269946535364
sg44
F-10.93689061900651
sg45
F-11.496506406941933
sg46
F-10.803359226381987
sg47
F-9.245214608335438
sg48
F-12.882800768061824
sg49
F-11.091041298833769
sg50
F-11.784188479393714
sg51
F-10.174750566959613
sg52
F-11.784188479393714
sg53
F-10.484905495263453
sg54
F-8.350201274908567
sg55
F-11.784188479393714
sg56
F-11.784188479393714
sg57
F-11.091041298833769
sg58
F-9.032653166351766
sg59
F-8.893816721497549
sg60
F-11.273362855627724
sg61
F-9.747306552132674
sg63
F-12.882800768061824
sg64
F-9.219239121932178
ssg24
(dp91
g6
F-11.907329625718967
sg7
F-10.297891713284868
sg12
F-11.214182445159022
sg73
F-3.0592512045503013
sg15
F-6.305210804839267
sg17
F-4.616354847575986
sg18
F-3.0099207604480167
sg19
F-2.78998212059195
sg20
F-2.9701111748632365
sg21
F-2.8582149022420067
sg22
F-3.0002588495362796
sg23
F-2.6092531394386986
sg24
F-2.8003517667379385
sg25
F-2.9314465649572683
sg26
F-2.9625185215534326
sg27
F-2.901679126398748
sg35
F-4.37256696868143
sg37
F-2.787461156906861
sg38
F-2.9631707947485637
sg39
F-3.092850625708255
sg40
F-3.074450165441352
sg41
F-3.0651585771072525
sg42
F-10.808717337050858
sg43
F-2.1910153807078188
sg44
F-10.808717337050858
sg45
F-10.808717337050858
sg46
F-11.907329625718967
sg47
F-10.521035264599078
sg48
F-11.214182445159022
sg49
F-9.509434352920596
sg50
F-11.214182445159022
sg51
F-11.214182445159022
sg52
F-10.521035264599078
sg53
F-11.214182445159022
sg54
F-8.962890646552527
sg55
F-9.199279424616758
sg56
F-9.509434352920596
sg58
F-8.611492759714638
sg59
F-8.688453800850768
sg60
F-11.907329625718967
sg61
F-10.521035264599078
sg63
F-7.171131177324472
sg64
F-8.351981564229554
ssg25
(dp92
g6
F-11.976439331184968
sg7
F-10.995610078173241
sg11
F-12.381904439293132
sg12
F-12.381904439293132
sg73
F-4.227260555008228
sg15
F-7.2171184653696185
sg17
F-2.6158702459620944
sg18
F-3.9192730358695775
sg19
F-2.8640793675689893
sg20
F-3.407729536983023
sg21
F-4.186156950481485
sg22
F-4.042881433548374
sg23
F-0.9859005061802749
sg24
F-4.084983924099422
sg25
F-3.9058457912354503
sg26
F-4.168793741696457
sg27
F-4.182028125458367
sg35
F-2.9706661249500597
sg37
F-1.588346934525932
sg38
F-4.213418022166451
sg39
F-4.233747999371508
sg40
F-4.258791411118496
sg41
F-4.248023551343926
sg42
F-11.976439331184968
sg43
F-4.235340241149602
sg44
F-11.688757258733187
sg45
F-12.381904439293132
sg46
F-13.075051619853078
sg47
F-13.075051619853078
sg49
F-11.688757258733187
sg50
F-11.688757258733187
sg51
F-12.381904439293132
sg52
F-13.075051619853078
sg53
F-11.688757258733187
sg54
F-10.995610078173241
sg55
F-13.075051619853078
sg56
F-11.976439331184968
sg57
F-11.283292150625023
sg58
F-10.995610078173241
sg59
F-11.465613707418978
sg60
F-11.688757258733187
sg61
F-9.779214753848748
sg63
F-13.075051619853078
sg64
F-9.548691095236917
ssg26
(dp93
g7
F-10.062886341676826
sg12
F-12.260110919013046
sg73
F-3.4131824189140274
sg15
F-6.691766415251949
sg17
F-6.124546027931307
sg18
F-3.3023429090418843
sg19
F-3.3512811274251777
sg20
F-1.1262082616454567
sg21
F-3.3349224896350185
sg22
F-3.093617946817139
sg23
F-3.328294681703878
sg24
F-3.354937933829663
sg25
F-2.0759659089621008
sg26
F-3.3901504084890925
sg27
F-3.2895517395040956
sg35
F-3.8689345681802947
sg37
F-3.4030227836980926
sg38
F-3.4193860022513296
sg39
F-3.4134701059125594
sg40
F-3.437641346744076
sg41
F-3.395929549247619
sg42
F-12.260110919013046
sg43
F-3.3998955601118626
sg44
F-11.5669637384531
sg45
F-11.5669637384531
sg47
F-12.260110919013046
sg48
F-12.260110919013046
sg49
F-11.161498630344935
sg50
F-12.260110919013046
sg52
F-10.314200769957733
sg53
F-10.873816557893155
sg54
F-10.062886341676826
sg55
F-11.161498630344935
sg56
F-10.873816557893155
sg57
F-11.5669637384531
sg58
F-10.873816557893155
sg59
F-11.161498630344935
sg60
F-12.260110919013046
sg61
F-8.964274053008715
sg63
F-11.5669637384531
sg64
F-8.763603357546565
ssg27
(dp94
g6
F-11.420247152097096
sg7
F-11.132565079645316
sg12
F-12.518859440765205
sg73
F-3.671787128197399
sg15
F-6.750538444971434
sg17
F-5.473954323635835
sg18
F-3.5316626201032326
sg19
F-3.537177800791343
sg20
F-3.4034893063802496
sg21
F-3.5296646174405595
sg22
F-1.0235990892025435
sg23
F-2.858654373384174
sg24
F-3.554163885449746
sg25
F-1.764259882379917
sg26
F-3.3962579830970294
sg27
F-3.628862083480365
sg35
F-4.290415557761172
sg37
F-3.6928588952822388
sg38
F-3.697864795017304
sg39
F-3.5767907477209806
sg40
F-3.6851052173468104
sg41
F-3.6073294990286473
sg42
F-10.72709997153715
sg43
F-3.716036281023318
sg44
F-11.420247152097096
sg45
F-10.909421528331105
sg46
F-11.825712260205261
sg47
F-10.909421528331105
sg48
F-12.518859440765205
sg49
F-11.825712260205261
sg50
F-11.132565079645316
sg51
F-10.572949291709893
sg52
F-9.08487223628006
sg53
F-11.132565079645316
sg54
F-10.321634863428987
sg55
F-10.572949291709893
sg56
F-9.42781698740689
sg57
F-11.420247152097096
sg58
F-5.853175722982797
sg59
F-12.518859440765205
sg60
F-11.825712260205261
sg61
F-8.32920469873878
sg63
F-9.08487223628006
sg64
F-9.11766205910305
ssg28
(dp95
g57
F-1.8325814637483102
sg35
F-0.1743533871447778
ssg29
(dp96
g73
F-0.6061358035703156
sg29
F-0.7884573603642702
ssg30
(dp97
g37
F-3.0602707946915624
sg52
F-4.1588830833596715
sg38
F-2.772588722239781
sg39
F-4.1588830833596715
sg41
F-4.1588830833596715
sg30
F-4.1588830833596715
sg43
F-4.1588830833596715
sg44
F-2.367123614131617
sg47
F-4.1588830833596715
sg48
F-1.1631508098056809
sg49
F-3.4657359027997265
sg50
F-4.1588830833596715
sg51
F-3.4657359027997265
sg18
F-1.5939337258981352
sg53
F-4.1588830833596715
sg54
F-2.772588722239781
sg59
F-3.4657359027997265
ssg31
(dp98
g54
F-0.6931471805599453
sg51
F-0.6931471805599453
ssg32
(dp99
g37
F0.0
ssg33
(dp100
g45
F-0.5108256237659907
sg21
F-1.6094379124341003
sg58
F-1.6094379124341003
ssg34
(dp101
g73
F-0.916290731874155
sg48
F-0.5108256237659907
ssg35
(dp102
g6
F-11.59139092944941
sg73
F-10.42824011964373
sg15
F-11.254918692828197
sg17
F-11.254918692828197
sg18
F-1.82733787290486
sg19
F-4.141078828539829
sg20
F-1.7121038606189407
sg21
F-4.304377634528283
sg22
F-4.327360786549881
sg23
F-3.4807834738100403
sg24
F-4.2672965458072305
sg25
F-3.181248570360529
sg26
F-4.341465392731423
sg27
F-4.253673070758722
sg30
F-11.409069372655456
sg33
F-12.102216553215401
sg35
F-7.30367497424677
sg37
F-3.856044993357837
sg38
F-4.14761022567954
sg39
F-3.373466679736874
sg40
F-3.04615464700853
sg41
F-3.4585669378466046
sg42
F-8.266354908752819
sg43
F-3.5513307208326936
sg44
F-6.311237533529045
sg45
F-6.2811449920361
sg46
F-7.360187184510113
sg47
F-4.835622007465155
sg48
F-1.8942021022887188
sg49
F-6.9842227407986455
sg50
F-8.482329970588417
sg51
F-2.3231402041883937
sg52
F-9.10648427966141
sg53
F-5.579633679073666
sg54
F-3.98480465343903
sg55
F-4.644992026875069
sg56
F-6.329737547272965
sg57
F-6.271312071119861
sg58
F-5.048054789139437
sg59
F-6.903719521949576
sg60
F-10.80293356908514
sg61
F-6.689083512238783
sg62
F-9.70432128041703
sg63
F-4.13447432043571
sg65
F-8.405038296286769
ssg36
(dp103
g50
F0.0
ssg37
(dp104
g6
F-8.753285050404362
sg7
F-10.514272860965663
sg8
F-12.912168133764034
sg36
F-12.912168133764034
sg73
F-4.003879248206933
sg15
F-3.7919713116408165
sg16
F-12.912168133764034
sg17
F-4.6565994804802875
sg18
F-4.077976815561962
sg19
F-4.054226148959323
sg20
F-3.19869162650624
sg21
F-3.9917790736836745
sg22
F-3.7935045503597546
sg23
F-4.095611365122177
sg24
F-4.002122372290476
sg25
F-4.049259838645406
sg26
F-4.086167588281066
sg27
F-4.056219599712014
sg29
F-12.219020953204089
sg30
F-10.427261483976032
sg35
F-3.4243475518206665
sg37
F-4.008760613831769
sg38
F-3.3871630180061825
sg39
F-3.9542713988136122
sg40
F-4.02797350069176
sg41
F-1.367414598629253
sg42
F-3.943771942565778
sg43
F-3.9960646032103058
sg44
F-5.059340321482289
sg45
F-7.875215531350404
sg46
F-6.883889613533335
sg47
F-9.821125680405718
sg48
F-1.7695240475674872
sg49
F-3.692075470345172
sg50
F-9.478180929278887
sg51
F-3.691778425934849
sg52
F-11.120408664535978
sg53
F-3.8798784517311593
sg54
F-4.011891785132762
sg55
F-3.7852093707269017
sg56
F-5.071855150443869
sg57
F-3.502075669931011
sg58
F-6.805145246021779
sg59
F-6.332916921753932
sg60
F-5.816274912666501
sg61
F-7.496067731559613
sg63
F-7.999513248027982
sg64
F-9.274581974037648
ssg38
(dp105
g32
F-12.766556627904285
sg6
F-9.39926079791781
sg7
F-10.281649978116283
sg14
F-10.820646478848971
sg73
F-3.8957531839221593
sg15
F-5.135610047013825
sg16
F-12.766556627904285
sg17
F-3.977048841167387
sg18
F-3.9127483529270863
sg19
F-3.9301826969768943
sg20
F-3.7339085443383935
sg21
F-3.8240957010837024
sg22
F-3.601004438718235
sg23
F-3.853275490192479
sg24
F-3.862333890535567
sg25
F-3.9073352342961525
sg26
F-3.949110706862413
sg27
F-3.9189092721923964
sg29
F-12.766556627904285
sg35
F-4.798237127891567
sg37
F-3.316333588609615
sg38
F-3.5776442033417215
sg39
F-3.927569834407498
sg40
F-1.5115732197909608
sg41
F-3.693640931839773
sg42
F-8.723505360069733
sg43
F-3.7377381325514913
sg44
F-5.8157418594617
sg45
F-4.598353697668232
sg46
F-5.030686307951718
sg47
F-10.368661355105914
sg48
F-5.776300127410403
sg49
F-4.263056763620049
sg50
F-3.0258233266695815
sg51
F-4.3735670399473525
sg52
F-8.503876750862968
sg53
F-5.532379448154435
sg54
F-5.036821296519233
sg55
F-1.40944322208798
sg56
F-5.172678783299166
sg57
F-4.195254110841015
sg58
F-7.175569647393427
sg59
F-7.755921333808028
sg60
F-5.597206611233684
sg61
F-8.689019183998564
sg63
F-7.624893071401624
sg64
F-9.675514174545969
ssg39
(dp106
g6
F-10.21968419288611
sg7
F-9.583695426166113
sg12
F-12.41690877022233
sg14
F-9.644320047982548
sg73
F-3.529808566098642
sg15
F-5.210531478750077
sg16
F-12.41690877022233
sg17
F-4.172312013839832
sg18
F-3.6064491280604107
sg19
F-2.696863402148859
sg20
F-3.4227363358239313
sg21
F-3.572716643977361
sg22
F-3.598426502948094
sg23
F-3.5656748673762944
sg24
F-3.3452559180200403
sg25
F-3.4881358696980738
sg26
F-3.5295322848425674
sg27
F-3.6064491280604107
sg35
F-4.473836052944397
sg37
F-3.2777422177006716
sg38
F-3.5107864393380273
sg39
F-3.4581114240820545
sg40
F-3.5052440121727937
sg41
F-3.5403642196639518
sg42
F-6.561836848019903
sg43
F-0.9296191125107499
sg44
F-4.933102082556495
sg45
F-7.863031878621789
sg46
F-8.951172867422603
sg47
F-7.069801239504861
sg48
F-7.468148879844161
sg49
F-5.625687307496144
sg50
F-4.589667868469518
sg51
F-8.35646575967591
sg52
F-10.337467228542494
sg53
F-6.948848629087198
sg54
F-5.519203827093694
sg55
F-4.69334629794436
sg56
F-5.067677945608995
sg57
F-6.067769778842532
sg58
F-5.700313996701351
sg59
F-7.6547348354245734
sg60
F-7.629417027440284
sg61
F-7.782179781992694
sg63
F-10.625149300994275
sg64
F-8.753347124092683
ssg40
(dp107
g6
F-7.9225155303513715
sg7
F-11.314143460997377
sg8
F-13.26005361005269
sg9
F-13.26005361005269
sg12
F-12.16144132138458
sg73
F-4.146444427036278
sg15
F-3.710316709938047
sg16
F-10.12455939412354
sg17
F-4.123359778244805
sg18
F-4.427465907618135
sg19
F-4.191507243694393
sg20
F-1.77103156916402
sg21
F-4.4466151155241835
sg22
F-4.4220821186954815
sg23
F-4.407245692429369
sg24
F-4.412262545207839
sg25
F-4.388548263886908
sg26
F-4.376829379773695
sg27
F-4.370056252767848
sg28
F-8.431739872750388
sg30
F-13.26005361005269
sg35
F-2.315194539020766
sg37
F-4.112866053081775
sg38
F-3.700465809966571
sg39
F-4.005696352659732
sg40
F-4.169736280676237
sg41
F-3.9228163048881557
sg42
F-5.861267334632741
sg43
F-4.228839903973942
sg44
F-6.994752397314979
sg45
F-6.7662997702010035
sg46
F-6.4345935737973825
sg47
F-9.704705548563275
sg48
F-3.860085106100114
sg49
F-4.5084209075803905
sg50
F-7.047447514301171
sg51
F-2.9531697545775084
sg52
F-8.408023346133072
sg53
F-5.4529503199267095
sg54
F-1.3775043999023557
sg55
F-2.9597717658560283
sg56
F-6.118808487702198
sg57
F-3.5162654362742365
sg58
F-5.736572297479192
sg59
F-5.4021860507208865
sg60
F-5.833504537655385
sg61
F-4.896944434019167
sg63
F-6.366397255450054
sg64
F-9.040545904876582
ssg41
(dp108
g6
F-8.89575747284515
sg7
F-11.044191886011937
sg14
F-12.99010203506725
sg73
F-4.070648866491798
sg15
F-5.132234475735448
sg17
F-4.267033533903324
sg18
F-4.141879966695867
sg19
F-4.155910716865179
sg20
F-1.5001893444060954
sg21
F-4.084386456273161
sg22
F-3.253554937286775
sg23
F-4.095157574110365
sg24
F-4.170288898835025
sg25
F-1.8008036599895545
sg26
F-4.157368443070836
sg27
F-4.060799192824181
sg35
F-5.831588037737931
sg37
F-3.3561292510274545
sg38
F-4.058550068372729
sg39
F-3.9890023092362865
sg40
F-2.7786887036022994
sg41
F-4.063983063913868
sg42
F-6.945096721031239
sg43
F-3.9559023608099415
sg44
F-4.19044033825212
sg45
F-7.78061588222583
sg46
F-4.733235186092939
sg47
F-9.001117988502976
sg48
F-4.374875103379648
sg49
F-4.411437521562912
sg50
F-1.7137980418990075
sg51
F-7.7222438760039225
sg52
F-9.812048204719305
sg53
F-5.868042153438108
sg54
F-5.277658200792261
sg55
F-5.588870770654236
sg56
F-5.6110939074389465
sg57
F-6.576643077899894
sg58
F-7.37333093740068
sg59
F-6.68200359355772
sg60
F-7.37697392867918
sg61
F-7.902505699834867
sg63
F-12.296954854507305
sg64
F-9.301222580953315
ssg42
(dp109
g3
F-10.366623905926678
sg6
F-6.999328075940205
sg7
F-10.366623905926678
sg73
F-4.434378718478667
sg15
F-2.7513255661008635
sg17
F-2.448723319598762
sg18
F-7.147748081058477
sg19
F-8.757185993492577
sg20
F-4.095635474068379
sg21
F-5.844835328877638
sg22
F-6.703062259797032
sg23
F-7.370891632372687
sg24
F-7.968728633128308
sg25
F-6.076164464778287
sg26
F-8.980329544806787
sg27
F-8.064038812932633
sg29
F-8.757185993492577
sg30
F-9.673476725366733
sg35
F-2.8154370386305287
sg37
F-3.188841489731481
sg38
F-4.197013173435222
sg39
F-2.8361439106811415
sg40
F-1.433883271060764
sg41
F-4.226739353700423
sg42
F-4.995985877799015
sg43
F-5.109128533898897
sg44
F-2.5208164032888734
sg45
F-4.991345498242513
sg46
F-6.870116344460198
sg47
F-7.801674548465141
sg48
F-4.919886534260368
sg49
F-4.350466746228324
sg50
F-4.270799343494454
sg51
F-2.6198909981730565
sg52
F-9.26801161725857
sg53
F-4.170179778132158
sg54
F-3.0180363749990855
sg55
F-2.9049835137181033
sg56
F-3.158764034494203
sg57
F-5.491426582725527
sg58
F-6.022818484072994
sg59
F-6.009915079237087
sg60
F-6.049135792390368
sg61
F-6.239489520881587
sg63
F-9.26801161725857
ssg43
(dp110
g6
F-10.34031942839379
sg7
F-10.745784536501954
sg8
F-12.82522607818179
sg73
F-3.9548440121116526
sg15
F-5.726850439591003
sg17
F-4.044284964609403
sg18
F-3.0574437078110375
sg19
F-4.015811134271741
sg20
F-1.3387472632265454
sg21
F-4.010747078171077
sg22
F-3.131595732634138
sg23
F-3.999078679038232
sg24
F-3.1321509626061426
sg25
F-3.9932221469255196
sg26
F-4.00644790914478
sg27
F-3.92563171825594
sg35
F-4.122882002961439
sg37
F-3.882373071371869
sg38
F-3.8319229390880567
sg39
F-4.03724268198399
sg40
F-3.825113032253271
sg41
F-3.9596320792790665
sg42
F-7.237977419781541
sg43
F-3.9341272475651548
sg44
F-3.482279741657586
sg45
F-9.187639918455405
sg46
F-10.522640985187746
sg47
F-10.745784536501954
sg48
F-6.548582588840146
sg49
F-5.939716408146973
sg50
F-5.005188088723037
sg51
F-8.250515099678408
sg52
F-10.260276720720254
sg53
F-7.9273862782308795
sg54
F-5.928531746559078
sg55
F-3.5902906593502273
sg56
F-7.299773139050006
sg57
F-1.515531249193894
sg58
F-8.50773796464548
sg59
F-9.934854320285625
sg60
F-7.542022349443802
sg61
F-3.834909130183574
sg63
F-11.21578816574769
sg64
F-9.32871851671531
ssg44
(dp111
g4
F-12.615191072136241
sg6
F-10.21729579933787
sg7
F-11.922043891576296
sg12
F-11.922043891576296
sg73
F-7.058363010436703
sg15
F-4.018632325339262
sg16
F-12.615191072136241
sg17
F-3.32336288331379
sg18
F-9.282986561961037
sg19
F-10.417966494800021
sg20
F-7.326924041441705
sg21
F-7.515324644312042
sg22
F-7.6735486495269365
sg23
F-10.13028442234824
sg24
F-8.52084650991414
sg25
F-10.13028442234824
sg26
F-9.976133742520982
sg27
F-9.976133742520982
sg30
F-11.51657878346813
sg35
F-3.890171033517687
sg37
F-4.264052465050086
sg38
F-1.1692925552045663
sg39
F-4.7855606829860475
sg40
F-3.524197457792624
sg41
F-4.085871700922163
sg42
F-4.8121644285040235
sg43
F-5.5110469791487136
sg44
F-6.486140862075695
sg45
F-9.319354206131912
sg46
F-8.410498452745275
sg47
F-8.926311618022304
sg48
F-4.238870439601419
sg49
F-3.187081565183303
sg50
F-3.3985704622029074
sg51
F-1.0165283748874472
sg52
F-10.13028442234824
sg53
F-4.645487488857586
sg54
F-4.208929441427284
sg55
F-4.7374147388589805
sg56
F-8.137854257658034
sg57
F-3.5081023299705323
sg58
F-8.488056687091149
sg59
F-4.7553918915741304
sg60
F-11.51657878346813
sg61
F-8.050842880668405
sg63
F-5.222543551414617
ssg45
(dp112
g6
F-7.466732207428102
sg73
F-4.569845768510744
sg15
F-1.1362775877065658
sg17
F-3.075192145716347
sg18
F-9.201333262816208
sg19
F-8.690507639050217
sg20
F-6.689027638840093
sg21
F-5.546355360377953
sg22
F-7.902050278685947
sg23
F-10.299945551484319
sg24
F-8.913651190364428
sg25
F-7.121891721136373
sg26
F-9.201333262816208
sg27
F-7.591895350382107
sg35
F-3.757473590977513
sg37
F-2.533952472076643
sg38
F-4.408301339658546
sg39
F-5.599465185691901
sg40
F-1.8687460732350565
sg41
F-4.528504428354302
sg42
F-6.4497979497742595
sg43
F-4.525394005939909
sg44
F-2.972822259225025
sg45
F-5.581446680189224
sg46
F-4.602852064978913
sg47
F-8.354035402429005
sg48
F-5.302733277720203
sg49
F-4.933969536462467
sg50
F-2.2770486818828606
sg51
F-6.898748169822162
sg52
F-7.121891721136373
sg53
F-4.716449242702619
sg54
F-4.672324437793681
sg55
F-3.9918471099747874
sg56
F-3.678539899720183
sg57
F-3.3606916054428098
sg58
F-5.379964625656193
sg59
F-5.943236724794726
sg60
F-3.4477029824324394
sg61
F-7.527356829244536
sg63
F-7.997360458490272
ssg46
(dp113
g6
F-6.533627326183013
sg7
F-9.136317011627396
sg14
F-9.829464192187341
sg73
F-4.058023069057326
sg15
F-2.4405180945689047
sg17
F-2.6929809835970944
sg18
F-6.395476987702196
sg19
F-6.165902546057695
sg20
F-7.190406862572083
sg21
F-7.750022650507506
sg22
F-6.533627326183013
sg23
F-6.939092434291177
sg24
F-9.136317011627396
sg25
F-6.738421738829026
sg26
F-9.136317011627396
sg27
F-8.037704722959287
sg35
F-1.3512197509096793
sg37
F-3.35866468840474
sg38
F-4.198252410365976
sg39
F-4.431301490669589
sg40
F-1.7626288777700054
sg41
F-4.5771907641407115
sg42
F-4.511344198343125
sg43
F-3.860756632201976
sg44
F-3.1586978713414675
sg45
F-5.265116000719505
sg46
F-5.769021181640922
sg47
F-5.735119629965241
sg48
F-4.440392462370841
sg49
F-5.175503842029818
sg50
F-3.733639629755117
sg51
F-5.329654521857076
sg52
F-5.147332965063122
sg53
F-4.676172597689563
sg54
F-2.820055259478705
sg55
F-4.099364409213767
sg56
F-4.180489954026136
sg57
F-4.024329223270853
sg58
F-6.022801702417022
sg59
F-6.1405847380734055
sg60
F-2.9899877539584994
sg61
F-8.220026279753242
sg63
F-5.85917227863522
ssg47
(dp114
g6
F-9.276221741089696
sg7
F-9.276221741089696
sg73
F-4.958733627553385
sg15
F-7.889927379969805
sg17
F-6.503633018849914
sg18
F-7.078997163753476
sg19
F-8.58307456052975
sg20
F-6.711272383628159
sg21
F-6.18517928773138
sg22
F-7.19678019940986
sg23
F-6.97363664809565
sg24
F-6.637164411474437
sg25
F-7.078997163753476
sg26
F-7.666783828655595
sg27
F-7.889927379969805
sg35
F-6.878326468291325
sg37
F-0.83893793290176
sg38
F-5.515021625396133
sg39
F-6.97363664809565
sg40
F-3.3984859593100563
sg41
F-6.878326468291325
sg42
F-7.078997163753476
sg43
F-6.711272383628159
sg44
F-4.575741375297279
sg45
F-6.44300839703348
sg46
F-6.637164411474437
sg47
F-7.078997163753476
sg48
F-6.140727525160546
sg49
F-7.4844622718616405
sg50
F-4.018726369061914
sg51
F-6.711272383628159
sg52
F-6.97363664809565
sg53
F-0.9038231345766913
sg54
F-2.9341003223685442
sg55
F-5.84223453660455
sg56
F-6.057345916221495
sg57
F-6.057345916221495
sg58
F-8.58307456052975
sg59
F-5.692702802633585
sg60
F-8.177609452421585
sg61
F-8.177609452421585
sg63
F-7.666783828655595
ssg48
(dp115
g6
F-8.98810266026537
sg12
F-12.320307170440575
sg14
F-12.320307170440575
sg73
F-6.479665513067177
sg15
F-4.896141889398547
sg17
F-2.8091217394863306
sg18
F-9.14225334009263
sg19
F-9.229264717082259
sg20
F-9.024470304436246
sg21
F-8.312973985208105
sg22
F-9.681249840825316
sg23
F-10.374397021385262
sg24
F-11.221694881772466
sg25
F-8.764959108951162
sg26
F-11.62715998988063
sg27
F-11.62715998988063
sg29
F-12.320307170440575
sg34
F-12.320307170440575
sg35
F-4.9807694750329
sg37
F-3.388755203746053
sg38
F-4.3506035871619195
sg39
F-5.662296124569827
sg40
F-3.1784597949096924
sg41
F-1.1884225296679867
sg42
F-5.8905876924014375
sg43
F-5.828067335420104
sg44
F-0.9644332554224676
sg45
F-7.357462540180667
sg46
F-7.371547280062407
sg47
F-8.91910978877842
sg48
F-4.574006508209136
sg49
F-4.820883879848346
sg50
F-3.8989643046811717
sg51
F-5.105802756289431
sg52
F-7.283354568026946
sg53
F-3.733961120336021
sg54
F-2.9120179857847384
sg55
F-6.101707050748845
sg56
F-5.14099920093654
sg57
F-5.983481439294134
sg58
F-6.843843618509064
sg59
F-6.823138945147373
sg60
F-7.09995134536225
sg61
F-7.251402968220344
sg63
F-8.91910978877842
ssg49
(dp116
g6
F-6.917442384318459
sg7
F-10.593743056225534
sg10
F-11.28689023678548
sg13
F-10.18827794811737
sg14
F-11.28689023678548
sg73
F-4.911865416957384
sg15
F-3.0302828921593226
sg17
F-2.4648629140998963
sg18
F-6.088393205519655
sg19
F-5.954171443520111
sg20
F-4.973342190508385
sg21
F-5.781558700853117
sg22
F-8.29115796323149
sg23
F-7.395069938674854
sg24
F-9.900595875665589
sg25
F-7.0102241177694244
sg26
F-8.57884003568327
sg27
F-9.089665659449262
sg30
F-10.593743056225534
sg31
F-11.28689023678548
sg35
F-1.671084756701133
sg37
F-2.7649085286374455
sg38
F-4.986104442122236
sg39
F-4.836419814641304
sg40
F-2.366100348321106
sg41
F-3.8538148878869
sg42
F-4.8587849641008845
sg43
F-6.0504482739555305
sg44
F-2.002463321456599
sg45
F-6.324045606525573
sg46
F-6.733013345184939
sg47
F-7.549220618502112
sg48
F-5.132032142769062
sg49
F-2.3348025932370753
sg50
F-3.1110612280708834
sg51
F-6.524716301987724
sg52
F-8.108836406437534
sg53
F-3.7072114136950245
sg54
F-2.984624441912112
sg55
F-5.191065674353255
sg56
F-3.2909097620217205
sg57
F-3.559355126310032
sg58
F-6.217986034565248
sg59
F-5.064313968714112
sg60
F-5.512338691241072
sg61
F-5.566578460178069
sg63
F-8.647832907170221
ssg50
(dp117
g6
F-8.64263909981819
sg7
F-11.613053565387892
sg10
F-12.999347926507781
sg12
F-11.900735637839672
sg73
F-7.113243895057626
sg15
F-6.389998683340401
sg16
F-11.207588457279726
sg17
F-5.7753231182219515
sg18
F-8.434999735039945
sg19
F-11.389910014073681
sg20
F-8.488488419990931
sg21
F-8.973996235772633
sg22
F-9.780472101639582
sg23
F-9.954825488784358
sg24
F-11.613053565387892
sg25
F-11.613053565387892
sg26
F-12.306200745947837
sg27
F-9.780472101639582
sg30
F-12.999347926507781
sg35
F-6.698562131844538
sg37
F-5.465119600233693
sg38
F-5.388990308194944
sg39
F-6.233156211847431
sg40
F-7.8288639314696296
sg41
F-4.914785511272478
sg42
F-5.7753231182219515
sg43
F-1.6785640776703783
sg44
F-6.229705949655279
sg45
F-9.863853710578631
sg46
F-6.54572292761509
sg47
F-8.374375113223511
sg48
F-4.211517097249022
sg49
F-4.230773642366095
sg50
F-5.30268084498132
sg51
F-1.9259356837852901
sg52
F-9.285775859803474
sg53
F-5.521178232347997
sg54
F-1.6413350982469082
sg55
F-3.388756013476322
sg56
F-1.9494901997821763
sg57
F-5.126511751482058
sg58
F-1.5571132021603227
sg59
F-4.982700049449979
sg60
F-7.2155227441780445
sg61
F-6.216022725903822
sg63
F-10.696762833513736
ssg51
(dp118
g6
F-8.111213344111007
sg7
F-10.990411801409046
sg10
F-12.599849713843147
sg12
F-10.520408172163311
sg73
F-5.841755209415416
sg15
F-2.902710052703828
sg17
F-3.7032616420519293
sg18
F-7.446558119345368
sg19
F-8.962263554116761
sg20
F-6.87300196625595
sg21
F-8.771208317354052
sg22
F-10.402625136506927
sg23
F-10.03490035638161
sg24
F-9.891799512740937
sg25
F-8.70802941573252
sg26
F-9.198652332180991
sg27
F-10.114943064055147
sg30
F-10.653939564787834
sg31
F-12.599849713843147
sg34
F-12.599849713843147
sg35
F-3.6503547603651856
sg37
F-3.672933824066104
sg38
F-3.9078632320537463
sg39
F-6.347945830677259
sg40
F-1.5349941898135202
sg41
F-1.2848021810646533
sg42
F-3.568516397693089
sg43
F-3.2409169378171376
sg44
F-4.748188535953882
sg45
F-6.68905306980262
sg46
F-6.058819714653244
sg47
F-8.169032914999834
sg48
F-5.7919147701432205
sg49
F-5.67622108570472
sg50
F-1.8495286944480855
sg51
F-5.912741105976632
sg52
F-6.334548501105437
sg53
F-5.2960064885654425
sg54
F-3.8332995642967966
sg55
F-5.537658081556591
sg56
F-5.612359466842157
sg57
F-2.760047712993152
sg58
F-6.840947939965867
sg59
F-6.18803144613325
sg60
F-7.829165089377482
sg61
F-8.33716983680183
sg63
F-9.508807260484831
ssg52
(dp119
g73
F-4.285751703932706
sg15
F-1.7984669317397382
sg17
F-2.568100206858373
sg18
F-7.841099765422119
sg19
F-5.895189616366806
sg20
F-6.454805404302229
sg21
F-5.538514672428074
sg22
F-6.454805404302229
sg23
F-6.454805404302229
sg24
F-7.841099765422119
sg25
F-6.049340296194065
sg26
F-6.454805404302229
sg27
F-6.454805404302229
sg29
F-6.049340296194065
sg35
F-3.3085002722688635
sg37
F-6.23166185298802
sg38
F-4.473803935435646
sg39
F-5.761658223742284
sg40
F-3.889856046840692
sg41
F-4.796577327698697
sg42
F-6.74248747675401
sg43
F-3.8157480746869705
sg44
F-6.049340296194065
sg45
F-6.049340296194065
sg46
F-6.454805404302229
sg47
F-6.23166185298802
sg48
F-3.889856046840692
sg49
F-1.4194774976156017
sg50
F-3.3412900950918547
sg51
F-5.443204492623749
sg52
F-5.068511043182339
sg53
F-4.103430147138751
sg54
F-5.895189616366806
sg55
F-6.454805404302229
sg56
F-1.434219779352805
sg57
F-4.622223940553919
sg58
F-4.056910131503859
sg59
F-7.147952584862175
sg60
F-6.454805404302229
sg61
F-4.375363862622393
sg63
F-6.74248747675401
ssg53
(dp120
g6
F-7.682467580956494
sg9
F-11.11645478544164
sg14
F-8.34386606320186
sg73
F-4.0440328849042695
sg15
F-3.183733757959692
sg17
F-2.56254401109024
sg18
F-6.203799899705588
sg19
F-7.355254669748078
sg20
F-7.091103094706491
sg21
F-6.616645115111376
sg22
F-8.813869692447595
sg23
F-6.3715226570783905
sg24
F-9.170544636386326
sg25
F-7.532935846985531
sg26
F-7.980960569512491
sg27
F-7.61994722397516
sg34
F-10.01784249677353
sg35
F-2.419443167449567
sg37
F-2.788486927136152
sg38
F-3.6209128415573844
sg39
F-6.397955914146546
sg40
F-2.5849642893245783
sg41
F-3.9548327825024527
sg42
F-6.443625950979734
sg43
F-4.69320782190812
sg44
F-2.808995458429695
sg45
F-4.221784746008159
sg46
F-6.189201100284436
sg47
F-7.749158955455166
sg48
F-4.808356343932109
sg49
F-2.581028825764343
sg50
F-2.623144534488735
sg51
F-3.6507994753075836
sg52
F-8.283241441385425
sg53
F-2.6280726758795225
sg54
F-3.629281091227901
sg55
F-2.1005490381432144
sg56
F-3.9501888113080024
sg57
F-3.1543874766879734
sg58
F-6.241257462240489
sg59
F-6.047550583221409
sg60
F-5.224810573615869
sg61
F-4.025544963361657
sg63
F-9.037013243761804
ssg54
(dp121
g32
F-12.98273802570024
sg6
F-8.273207824387905
sg7
F-12.289590845140294
sg12
F-11.596443664580349
sg13
F-12.98273802570024
sg14
F-9.154096629211145
sg73
F-5.1862687826141824
sg15
F-1.6197869733138568
sg17
F-3.1407004354803343
sg18
F-9.245068407416872
sg19
F-8.048264092569548
sg20
F-8.229147834593874
sg21
F-8.033978135322071
sg22
F-10.210149303460458
sg23
F-10.78551344836402
sg24
F-11.190978556472185
sg25
F-9.111537014792349
sg26
F-11.37330011326614
sg27
F-9.650533515525035
sg30
F-11.88412573703213
sg35
F-1.6482456872771636
sg37
F-4.588164547831913
sg38
F-4.5022088186555935
sg39
F-5.702729772816052
sg40
F-3.2148983897603944
sg41
F-6.091112128647986
sg42
F-7.110620236224824
sg43
F-6.479947979784616
sg44
F-3.593331389650775
sg45
F-4.500550443482817
sg46
F-5.289256384865064
sg47
F-10.903296484020403
sg48
F-5.576027295522599
sg49
F-6.853687815639694
sg50
F-1.1063924168870591
sg51
F-6.156192802143646
sg52
F-6.4562431661294495
sg53
F-4.521268983056364
sg54
F-4.596337124534026
sg55
F-5.7601720068780695
sg56
F-5.560364324713416
sg57
F-3.1590515433676662
sg58
F-7.121951802234374
sg59
F-4.300878212728768
sg60
F-3.8346986799214364
sg61
F-7.735713953539753
sg63
F-11.036827876644926
ssg55
(dp122
g6
F-8.23021474732894
sg7
F-12.684562043582448
sg10
F-12.684562043582448
sg11
F-12.684562043582448
sg12
F-11.585949754914338
sg14
F-9.911973321342668
sg73
F-5.878839490165463
sg15
F-3.229551489747776
sg16
F-12.684562043582448
sg17
F-3.727180307999661
sg18
F-7.757308358425243
sg19
F-9.388725177578118
sg20
F-7.840374957123857
sg21
F-8.465054338406341
sg22
F-11.075124131148348
sg23
F-9.976511842480239
sg24
F-8.573688179409137
sg25
F-10.199655393794448
sg26
F-11.298267682462559
sg27
F-10.119612686120911
sg30
F-11.585949754914338
sg35
F-3.5857120476396287
sg37
F-3.599218161780951
sg38
F-1.634529548622908
sg39
F-6.897664662215741
sg40
F-1.4443249537798633
sg41
F-4.522330978101269
sg42
F-6.304439506682683
sg43
F-5.7838313795372756
sg44
F-3.5047839771889056
sg45
F-7.905438550470919
sg46
F-4.809442762542155
sg47
F-8.394102602434057
sg48
F-5.08867212586391
sg49
F-5.676056861500168
sg50
F-1.267332832933721
sg51
F-5.189575809631915
sg52
F-8.877899553812128
sg53
F-5.597824109071872
sg54
F-4.225633760298186
sg55
F-6.324988174910071
sg56
F-3.3876770702060797
sg57
F-4.222036253508519
sg58
F-7.8723776882100305
sg59
F-4.117817073336963
sg60
F-4.842283264465096
sg61
F-8.813361032674557
sg63
F-11.075124131148348
ssg56
(dp123
g6
F-10.284395247247431
sg7
F-11.670689608367322
sg73
F-6.866668563634065
sg15
F-3.253979955529407
sg17
F-4.467284087284227
sg18
F-9.272794335568951
sg19
F-11.670689608367322
sg20
F-9.878930139139268
sg21
F-8.674957334813332
sg22
F-9.724779459312009
sg23
F-10.572077319699213
sg24
F-11.670689608367322
sg25
F-8.303393778380848
sg26
F-8.41259307034584
sg27
F-10.977542427807377
sg29
F-11.670689608367322
sg35
F-3.2599686614616012
sg37
F-4.061323070413111
sg38
F-5.285495209369596
sg39
F-5.170902567711468
sg40
F-3.931330405678224
sg41
F-4.873865890092467
sg42
F-5.0321218192008015
sg43
F-6.883197865585276
sg44
F-3.074870096495895
sg45
F-9.368104515373277
sg46
F-6.57693940756056
sg47
F-9.473465031031102
sg48
F-4.874983833193808
sg49
F-4.217127736723949
sg50
F-6.529026051864662
sg51
F-3.620624185451356
sg52
F-10.572077319699213
sg53
F-3.692035879284591
sg54
F-2.0264262554664905
sg55
F-0.6076985142292186
sg56
F-8.726250629200882
sg57
F-3.185193503694339
sg58
F-9.368104515373277
sg59
F-9.724779459312009
sg60
F-10.977542427807377
sg61
F-5.326809174240991
sg63
F-7.663356423134851
ssg57
(dp124
g6
F-7.377792822381464
sg7
F-12.237605226743135
sg12
F-12.237605226743135
sg13
F-12.237605226743135
sg14
F-11.54445804618319
sg73
F-5.272524881141729
sg15
F-0.9431840909386918
sg16
F-9.241872953189144
sg17
F-2.556886295816144
sg18
F-7.417323661138099
sg19
F-9.40439188268692
sg20
F-6.313349429328603
sg21
F-8.110470841698044
sg22
F-9.752698576955135
sg23
F-7.528075025430801
sg24
F-8.80361802225799
sg25
F-7.947145785594745
sg26
F-7.385574962823519
sg27
F-7.555473999618916
sg30
F-10.628167314309035
sg35
F-3.524845251782923
sg37
F-3.1067410562687496
sg38
F-4.364388171880394
sg39
F-5.951607132234271
sg40
F-2.5034242939234677
sg41
F-5.566838905897261
sg42
F-7.920117113206825
sg43
F-3.1634282795798243
sg44
F-2.2945604792085534
sg45
F-4.34068057047427
sg46
F-7.1562008617586725
sg47
F-7.880896400053544
sg48
F-4.448564825085659
sg49
F-4.858597099114831
sg50
F-3.4836022932488735
sg51
F-6.537161653352449
sg52
F-8.366404215835244
sg53
F-4.725533980907668
sg54
F-3.955122223012573
sg55
F-3.4694976870673315
sg56
F-4.062339122631075
sg57
F-4.675963481154356
sg58
F-3.5538811644392676
sg59
F-5.82087294423081
sg60
F-4.048083115995042
sg61
F-5.99538196128797
sg63
F-8.110470841698044
ssg58
(dp125
g6
F-10.062336701061605
sg73
F-7.190657076177594
sg15
F-5.999979814332902
sg17
F-4.174382530323289
sg18
F-8.498361162704263
sg19
F-7.942073164861514
sg20
F-8.100678195038153
sg21
F-9.694611920936289
sg22
F-7.705684386797285
sg23
F-10.062336701061605
sg24
F-9.551511077295615
sg25
F-2.803533390672538
sg26
F-11.160948989729716
sg27
F-8.182023834492107
sg29
F-11.56641409783788
sg35
F-3.860476175461917
sg37
F-5.3648912389643435
sg38
F-6.104703184381408
sg39
F-7.5961221842857585
sg40
F-3.4281414593076946
sg41
F-6.586238011226333
sg42
F-8.85836389673567
sg43
F-7.497387343600069
sg44
F-0.9540290546505749
sg45
F-7.0072878503511955
sg46
F-7.346906392661773
sg47
F-10.313651129342512
sg48
F-4.642785469699453
sg49
F-5.762786288211963
sg50
F-2.6361845328171603
sg51
F-6.3089187258100985
sg52
F-10.873266917277935
sg53
F-5.493369563737475
sg54
F-0.9872053185651849
sg55
F-6.668574297886969
sg56
F-6.931685109608244
sg57
F-7.705684386797285
sg58
F-6.416016861366465
sg59
F-6.549134261022956
sg60
F-7.805213982144317
sg61
F-10.873266917277935
sg63
F-10.650123365963724
ssg59
(dp126
g6
F-10.338123037944072
sg12
F-10.338123037944072
sg73
F-5.567438413478407
sg15
F-1.8571789792029558
sg17
F-3.1104605392154174
sg18
F-5.184831443446293
sg19
F-7.773173680482536
sg20
F-5.5506312951620265
sg21
F-4.548162867046819
sg22
F-4.820670141479365
sg23
F-4.773602630621379
sg24
F-8.392212888888759
sg25
F-6.148468295917646
sg26
F-7.080026499922591
sg27
F-8.140898460607852
sg35
F-4.228875455179707
sg37
F-2.6908142055878344
sg38
F-2.7302449646655647
sg39
F-4.637679464553386
sg40
F-1.89092321834837
sg41
F-4.488798257997213
sg42
F-5.723002521102813
sg43
F-5.931403790679819
sg44
F-1.1771830162630164
sg45
F-5.24437283713731
sg46
F-9.239510749275963
sg47
F-7.565534315704291
sg48
F-3.7193840544268526
sg49
F-6.104016533346813
sg50
F-4.356708826689592
sg51
F-5.805523544790816
sg52
F-8.728685125509973
sg53
F-4.532988069027584
sg54
F-3.3571172972223424
sg55
F-4.7659690057663076
sg56
F-6.406297405219746
sg57
F-4.895705327422279
sg58
F-4.986264904468006
sg59
F-6.782774976454658
sg60
F-7.630072836841863
sg61
F-6.600453419660704
ssg60
(dp127
g6
F-5.858576810471567
sg8
F-10.121256687512883
sg12
F-10.121256687512883
sg73
F-4.095390713687569
sg15
F-2.558056095154812
sg16
F-10.121256687512883
sg17
F-2.4007949929131613
sg18
F-8.511818775078783
sg19
F-6.594896162896721
sg20
F-8.041815145833047
sg21
F-6.655520784713156
sg22
F-9.022644398844774
sg23
F-7.230884929616718
sg24
F-8.17534653845757
sg25
F-8.511818775078783
sg26
F-9.428109506952937
sg27
F-7.413206486410672
sg35
F-2.6941125541042674
sg37
F-4.6038037910481755
sg38
F-4.4141464227640075
sg39
F-2.445710684975035
sg40
F-3.622974538036449
sg41
F-4.522834728514508
sg42
F-6.985762471583733
sg43
F-6.407684620808575
sg44
F-5.726807532840444
sg45
F-6.229436389402256
sg46
F-6.687269483027737
sg47
F-9.428109506952937
sg48
F-3.5716059452790727
sg49
F-4.718579305640604
sg50
F-5.046082872279056
sg51
F-3.1055442670256537
sg52
F-8.17534653845757
sg53
F-2.5354678657808485
sg54
F-0.977804261078332
sg55
F-5.3254661419161415
sg56
F-5.124044413748768
sg57
F-4.295256580132433
sg58
F-5.090818766120448
sg59
F-7.556307330051346
sg60
F-8.734962326392992
sg61
F-6.565908626023469
sg63
F-4.906320929903897
ssg61
(dp128
g6
F-8.293899628850902
sg14
F-10.596484721844948
sg73
F-5.1627627182907085
sg15
F-2.8707132802569966
sg17
F-3.8571480944877745
sg18
F-6.767843325355853
sg19
F-7.070124197228787
sg20
F-4.6380600288151665
sg21
F-7.070124197228787
sg22
F-7.264280211669744
sg23
F-1.91649264012362
sg24
F-8.650574572789635
sg25
F-3.9423322016617295
sg26
F-9.49787243317684
sg27
F-0.7043109292090937
sg30
F-9.903337541285003
sg35
F-4.39800600535264
sg37
F-4.452299087719302
sg38
F-4.779373561881744
sg39
F-5.128424580709817
sg40
F-3.4364155142488215
sg41
F-6.437601638485276
sg42
F-6.985566809200724
sg43
F-6.453349995453416
sg44
F-5.149747350178639
sg45
F-6.202035567172509
sg46
F-9.49787243317684
sg47
F-9.210190360725058
sg48
F-3.181309612231653
sg49
F-5.323485163281202
sg50
F-8.031535364383412
sg51
F-6.502140159622847
sg52
F-9.210190360725058
sg53
F-3.5916027321320882
sg54
F-4.899391235339544
sg55
F-6.746337120134889
sg56
F-6.252679299991264
sg57
F-2.9025473963356765
sg58
F-6.406829979818522
sg59
F-8.198589449046578
sg60
F-4.3349930375239065
sg61
F-5.9425243716874245
sg63
F-8.650574572789635
ssg62
(dp129
g37
F-2.761008774808822
sg38
F-2.761008774808822
sg39
F-2.787677021890983
sg40
F-2.591932444764888
sg41
F-3.0663904243600038
sg43
F-2.997397552873052
sg18
F-2.787677021890983
sg19
F-2.932859031735481
sg20
F-2.787677021890983
sg21
F-2.7097154804212713
sg22
F-2.843246873045794
sg23
F-3.0312991045487334
sg24
F-2.997397552873052
sg25
F-2.7350332884055613
sg26
F-2.1644884299379483
sg27
F-2.787677021890983
ssg63
(dp130
g6
F-9.444858981311897
sg73
F-4.166744322081381
sg15
F-5.002207724821581
sg17
F-3.4710493694426363
sg18
F-8.058564620192007
sg19
F-8.346246692643788
sg20
F-6.959952331523898
sg21
F-7.498948832256584
sg22
F-7.835421068877797
sg23
F-8.346246692643788
sg24
F-8.751711800751952
sg27
F-8.751711800751952
sg30
F-9.444858981311897
sg35
F-4.093000847835832
sg37
F-2.422882558239738
sg38
F-7.835421068877797
sg39
F-8.346246692643788
sg40
F-4.006779672388702
sg41
F-6.266805150963952
sg42
F-5.918498456695736
sg43
F-6.010871776826751
sg44
F-5.002207724821581
sg45
F-0.36212473394086103
sg46
F-8.751711800751952
sg47
F-8.751711800751952
sg48
F-5.861340042855788
sg49
F-7.247634403975678
sg50
F-2.439069962058395
sg51
F-9.444858981311897
sg52
F-9.444858981311897
sg53
F-8.058564620192007
sg54
F-8.751711800751952
sg55
F-6.077563151325424
sg56
F-4.461252359603561
sg57
F-8.058564620192007
sg58
F-8.751711800751952
sg59
F-8.346246692643788
sg60
F-6.266805150963952
sg61
F-8.751711800751952
sg63
F-6.879909623850361
ssg64
(dp131
g65
F-6.398594934535208
sg73
F-0.07244546138010848
sg15
F-3.4541559553687673
sg59
F-3.3075524811768915
ssg65
(dp132
g73
F-4.812184355372417
sg35
F-0.008163310639160981
sssS'min_prob'
p133
F-13.40710162104087
s.