(dp0
S'entr_model'
p1
(dp2
S'\x81'
p3
F2.6603952283151183e-06
sS'\x82'
p4
F1.3301976141575592e-06
sS'\x94'
p5
F1.3301976141575592e-06
sS'\x9a'
p6
F3.990592842472678e-06
sS'!'
p7
F2.6603952283151183e-06
sS'\xa0'
p8
F2.6603952283151183e-06
sS'#'
p9
F6.650988070787796e-06
sS'%'
p10
F9.311383299102914e-06
sS'$'
p11
F0.0001210479828883379
sS"'"
p12
F1.3301976141575592e-06
sS'&'
p13
F3.990592842472678e-05
sS')'
p14
F5.985889263709017e-05
sS'('
p15
F4.7887114109672135e-05
sS'+'
p16
F0.00025273754668993627
sS'-'
p17
F0.014076151153015292
sS','
p18
F7.981185684945356e-06
sS'.'
p19
F0.08612497472624533
sS'1'
p20
F0.01696001958050888
sS'0'
p21
F0.019213374338891785
sS'3'
p22
F0.008128837620116845
sS'2'
p23
F0.01462286237243405
sS'5'
p24
F0.009423119898692149
sS'4'
p25
F0.009263496184993242
sS'7'
p26
F0.0055376126677379196
sS'6'
p27
F0.004547945642804695
sS'9'
p28
F0.0043856615338774725
sS'8'
p29
F0.006758734077534558
sS'='
p30
F8.912324014855647e-05
sS'@'
p31
F2.7934149897308745e-05
sS'\xa3'
p32
F1.3301976141575592e-06
sS'\xa1'
p33
F2.6603952283151183e-06
sS'['
p34
F0.0013102446499451959
sS']'
p35
F0.0013102446499451959
sS'_'
p36
F0.018765097742920688
sS'a'
p37
F0.04724861925487651
sS'c'
p38
F0.042753881516638115
sS'b'
p39
F0.012414734332932501
sS'e'
p40
F0.07492338061742453
sS'd'
p41
F0.0376046865522342
sS'g'
p42
F0.016079428759936575
sS'f'
p43
F0.012370837811665302
sS'i'
p44
F0.04957247448680976
sS'h'
p45
F0.011621936554894595
sS'k'
p46
F0.007393238339487714
sS'j'
p47
F0.02233268774409126
sS'm'
p48
F0.025132753721892925
sS'l'
p49
F0.06236365474454885
sS'o'
p50
F0.04478775366868502
sS'n'
p51
F0.0415819774185653
sS'q'
p52
F0.0019540602951974547
sS'p'
p53
F0.03822322844281747
sS's'
p54
F0.06306466888720988
sS'r'
p55
F0.052557437932979324
sS'u'
p56
F0.01798560194102436
sS't'
p57
F0.0468695129348416
sS'w'
p58
F0.009316704089559544
sS'v'
p59
F0.011393142565259496
sS'y'
p60
F0.015903842674867778
sS'x'
p61
F0.011548775686115929
sS'{'
p62
F1.862276659820583e-05
sS'z'
p63
F0.0018489746836790073
sS'}'
p64
F1.862276659820583e-05
sS'~'
p65
F3.990592842472678e-06
ssS'transition_probs'
p66
(dp67
g3
(dp68
g55
F-0.6931471805599453
sg48
F-0.6931471805599453
ssg4
(dp69
g36
F0.0
ssg5
(dp70
g46
F0.0
ssg6
(dp71
g55
F-0.40546510810816444
sg39
F-1.0986122886681098
ssg7
(dp72
g7
F-0.6931471805599453
sS'*'
p73
F-0.6931471805599453
ssg8
(dp74
g48
F-0.6931471805599453
sg51
F-0.6931471805599453
ssg9
(dp75
g20
F-1.6094379124341003
sg54
F-1.6094379124341003
sg73
F-1.6094379124341003
sg40
F-1.6094379124341003
sg49
F-1.6094379124341003
ssg10
(dp76
g23
F-1.252762968495368
sg73
F-0.3364722366212129
ssg11
(dp77
g44
F-3.817712325956905
sg51
F-4.51085950651685
sg55
F-3.817712325956905
sg73
F-4.51085950651685
sg19
F-0.06820825002653358
ssg12
(dp78
g19
F0.0
ssg13
(dp79
g38
F-3.4011973816621555
sg48
F-1.0033021088637848
sg57
F-0.916290731874155
sg50
F-1.791759469228055
sg43
F-3.4011973816621555
ssg14
(dp80
g73
F-0.19574457712609536
sg36
F-3.1135153092103742
sg19
F-2.0149030205422647
ssg15
(dp81
g38
F-2.890371757896165
sg40
F-2.1972245773362196
sg59
F-3.58351893845611
sg48
F-3.58351893845611
sg50
F-2.890371757896165
sg20
F-1.6376087894007967
sg53
F-2.890371757896165
sg22
F-2.890371757896165
sg23
F-1.9740810260220096
sg24
F-3.58351893845611
sg25
F-2.890371757896165
sg26
F-3.58351893845611
sg27
F-2.890371757896165
sg28
F-3.58351893845611
sg61
F-3.58351893845611
sg55
F-3.58351893845611
sg29
F-3.58351893845611
ssg16
(dp82
g37
F-4.148411783492376
sg38
F-3.6375861597263857
sg39
F-4.553876891600541
sg41
F-4.553876891600541
sg43
F-5.247024072160486
sg44
F-5.247024072160486
sg45
F-4.553876891600541
sg16
F-0.4934338810541215
sg73
F-3.8607297110405954
sg17
F-4.148411783492376
sg49
F-4.553876891600541
sg50
F-4.148411783492376
sg53
F-4.553876891600541
sg54
F-3.6375861597263857
sg23
F-3.455264602932431
sg56
F-5.247024072160486
sg57
F-4.148411783492376
sg58
F-1.988927534139004
sg59
F-4.553876891600541
sg36
F-5.247024072160486
ssg73
(dp83
g9
F-9.454383987398135
sg11
F-6.053186605735979
sg15
F-7.056488714599763
sg73
F-10.552996276066244
sg17
F-9.859849095506299
sg18
F-10.552996276066244
sg19
F-9.166701914946353
sg20
F-4.806793085526091
sg21
F-6.183548423599222
sg22
F-5.338060518457258
sg23
F-4.732913345713882
sg24
F-6.582704362514122
sg25
F-6.262536834917853
sg26
F-6.724354879577149
sg27
F-6.3941131927065715
sg28
F-6.158547121393805
sg29
F-6.031207699017203
sg31
F-10.552996276066244
sg36
F-3.898843755883025
sg37
F-3.0502580653113927
sg38
F-2.6092135836076182
sg39
F-3.7572905008927298
sg40
F-3.4704477067109436
sg41
F-3.1903510056484192
sg42
F-3.857197359007752
sg43
F-3.406224096613607
sg44
F-3.275057703120582
sg45
F-3.900133246712897
sg46
F-4.346420349341316
sg47
F-3.9355932980917667
sg48
F-2.528788790287666
sg49
F-3.291069183363493
sg50
F-2.5888405572253066
sg51
F-3.3094833014007627
sg52
F-5.3435101232248226
sg53
F-2.561065756213767
sg54
F-2.4315159013154926
sg55
F-3.315218084142801
sg56
F-3.9342572925490242
sg57
F-2.894296717797945
sg58
F-3.223246587024732
sg59
F-3.8609125335596155
sg60
F-7.119009071581098
sg61
F-4.950877455186543
sg62
F-7.913938946450985
sg63
F-6.564012229501969
sg65
F-10.552996276066244
ssg17
(dp84
g73
F-7.880615362344186
sg17
F-6.088855893116132
sg19
F-9.266909723464076
sg20
F-2.2886959808333787
sg21
F-3.272948296157508
sg22
F-2.4381976518223927
sg23
F-3.20778652788228
sg24
F-4.584778496339857
sg25
F-4.137011008541004
sg26
F-6.175867270105761
sg27
F-4.872460568791638
sg28
F-5.259576538231606
sg29
F-5.0622171040731105
sg34
F-8.573762542904133
sg36
F-5.5780302693501405
sg37
F-3.0403730541766114
sg38
F-2.6495067454895995
sg39
F-3.9438997443256687
sg40
F-3.8158712698983765
sg41
F-3.6074275077044557
sg42
F-4.632180735234441
sg43
F-4.025162708404435
sg44
F-3.5664661500733907
sg45
F-4.249629886649153
sg46
F-4.702561531996241
sg47
F-4.160964249563496
sg48
F-2.903881619923612
sg49
F-3.3267384707436456
sg50
F-4.03580110660949
sg51
F-3.5465979468566653
sg52
F-6.433696379407861
sg53
F-3.0285850984245695
sg54
F-2.7244377629572725
sg55
F-3.769741498170875
sg56
F-3.850809321259657
sg57
F-3.446826793111715
sg58
F-3.4861662076717477
sg59
F-3.63928860977344
sg60
F-6.433696379407861
sg61
F-4.8242584669737605
sg63
F-6.494321001224296
ssg18
(dp85
g21
F-1.791759469228055
sg45
F-1.791759469228055
sg17
F-1.791759469228055
sg54
F-1.791759469228055
sg48
F-1.791759469228055
sg22
F-1.791759469228055
ssg19
(dp86
g73
F-10.183162654585992
sg19
F-9.084550365917883
sg20
F-3.29867600254321
sg21
F-2.6798730239109108
sg22
F-4.5167359664735605
sg23
F-2.516004399266845
sg24
F-3.2654570447506877
sg25
F-4.360116759102974
sg26
F-3.2844481202560045
sg27
F-5.31562820413041
sg28
F-5.639867872315989
sg29
F-5.728815358332485
sg36
F-9.490015474026048
sg37
F-3.8552258708567977
sg38
F-2.6019528283896465
sg39
F-4.588451274984154
sg40
F-2.3949510967389167
sg41
F-3.8953040944242083
sg42
F-4.803265301045533
sg43
F-4.611008622408228
sg44
F-4.142907943308579
sg45
F-5.0894124537792305
sg46
F-7.475112453483782
sg47
F-4.603432828599771
sg48
F-3.4533385840965174
sg49
F-4.821870488876567
sg50
F-4.2456264495035665
sg51
F-2.4738543212001236
sg52
F-7.410573932346211
sg53
F-3.4239073839222995
sg54
F-3.3193592631330384
sg55
F-3.4089387682283783
sg56
F-3.178280664873133
sg57
F-4.058479263691788
sg58
F-3.612279692246408
sg59
F-2.762583749175192
sg60
F-8.796868293466103
sg61
F-3.178280664873133
sg63
F-5.776443407321739
ssg20
(dp87
g13
F-9.420196028963456
sg14
F-8.033901667843566
sg73
F-2.8634176728054146
sg17
F-3.372823849917179
sg18
F-9.420196028963456
sg19
F-2.469381260520873
sg20
F-2.199090930780961
sg21
F-2.7194649194156466
sg22
F-3.683623731484265
sg23
F-2.2710644304060503
sg24
F-2.4216863867128557
sg25
F-2.879166029773554
sg26
F-2.27342384951082
sg27
F-3.5508991158296825
sg28
F-2.3866895446757597
sg29
F-3.9271345856229085
sg34
F-5.756634382833811
sg35
F-2.726872360693508
sg36
F-4.422983755199342
sg37
F-4.931559659231318
sg38
F-5.658995913269894
sg39
F-4.815025842975365
sg40
F-5.325851466741356
sg41
F-5.2930616439183655
sg42
F-7.474285879908144
sg43
F-5.449904115411335
sg44
F-7.474285879908144
sg45
F-8.321583740295347
sg46
F-7.810758116529357
sg47
F-7.340754487283621
sg48
F-7.474285879908144
sg49
F-7.340754487283621
sg50
F-7.474285879908144
sg51
F-7.222971451627238
sg52
F-6.712145827861247
sg53
F-6.2847018130343075
sg54
F-6.586982684907241
sg55
F-6.647607306723676
sg56
F-7.340754487283621
sg57
F-7.117610935969411
sg58
F-7.222971451627238
sg59
F-7.340754487283621
sg60
F-7.222971451627238
sg61
F-6.475757049797017
sg63
F-7.474285879908144
sg64
F-8.727048848403511
ssg21
(dp88
g10
F-8.191740021277457
sg13
F-8.479422093729239
sg14
F-9.578034382397348
sg73
F-2.5740602456746684
sg17
F-4.325760954350718
sg18
F-9.578034382397348
sg19
F-2.081937037221392
sg20
F-1.4175161349198433
sg21
F-2.5056124818599774
sg22
F-3.7880742115000947
sg23
F-3.2115639346659104
sg24
F-2.6026204549413965
sg25
F-2.5056124818599774
sg26
F-4.448135667474275
sg27
F-3.7789417279368225
sg28
F-4.148688753442907
sg29
F-2.052933636271548
sg34
F-5.4508999973522565
sg35
F-7.786274913169294
sg36
F-4.269766684996144
sg37
F-5.483689820175248
sg38
F-5.260546268861038
sg39
F-5.373341763006382
sg40
F-5.034739600127344
sg41
F-5.500496938491629
sg42
F-7.498592840717513
sg43
F-5.358526677221241
sg44
F-6.486991929039032
sg45
F-8.191740021277457
sg46
F-7.380809805061129
sg47
F-7.1801391095989775
sg48
F-7.968596469963248
sg49
F-7.093127732609348
sg50
F-7.632124233342035
sg51
F-6.399980552049403
sg52
F-8.884887201837403
sg53
F-7.380809805061129
sg54
F-7.498592840717513
sg55
F-6.582302108843358
sg56
F-6.176837000735193
sg57
F-7.968596469963248
sg58
F-7.013085024935812
sg59
F-6.4425401664681985
sg60
F-7.380809805061129
sg61
F-7.786274913169294
sg63
F-8.191740021277457
ssg22
(dp89
g13
F-7.619233416226806
sg14
F-7.619233416226806
sg73
F-2.49130903560745
sg17
F-3.7620186472936545
sg19
F-1.5347340031516343
sg20
F-3.1610176431953776
sg21
F-2.675212871212534
sg22
F-3.5703512280814627
sg23
F-1.8592806701035502
sg24
F-3.7206334311308003
sg25
F-1.927748469381011
sg26
F-3.8658154409752985
sg27
F-3.713899398949456
sg28
F-3.605857916538372
sg29
F-3.938722211783386
sg34
F-5.350549874908442
sg35
F-5.162497643405502
sg36
F-4.240508890416709
sg37
F-4.483739200297656
sg38
F-4.558962621535244
sg39
F-4.88920430840582
sg40
F-4.766601986313488
sg41
F-3.7206334311308003
sg42
F-6.63840416321508
sg43
F-4.692494014159767
sg44
F-7.619233416226806
sg45
F-5.884632360838699
sg46
F-6.926086235666861
sg47
F-8.02469852433497
sg48
F-6.2329390551069155
sg49
F-7.619233416226806
sg50
F-7.108407792460815
sg51
F-7.108407792460815
sg52
F-8.717845704894916
sg53
F-5.191485180278754
sg54
F-6.2329390551069155
sg55
F-6.926086235666861
sg56
F-6.4152606119008695
sg57
F-6.926086235666861
sg58
F-7.108407792460815
sg59
F-6.926086235666861
sg60
F-8.02469852433497
sg61
F-7.108407792460815
sg63
F-8.02469852433497
ssg23
(dp90
g13
F-9.305013985578864
sg14
F-7.695576073144763
sg73
F-2.227515932009632
sg17
F-4.068572022748914
sg19
F-1.7304555013763834
sg20
F-3.2647592743014497
sg21
F-1.3134217035107714
sg22
F-3.4643723282054655
sg23
F-2.3843424813301803
sg24
F-3.9674759058775457
sg25
F-4.134529990540712
sg26
F-4.090078227969879
sg27
F-4.112057134688653
sg28
F-4.370540052448172
sg29
F-2.353241821179952
sg34
F-5.616134531464928
sg35
F-5.056518743529505
sg36
F-4.047518613551082
sg37
F-5.000948892374694
sg38
F-5.014554544430473
sg39
F-5.194140121405552
sg40
F-5.334722072026742
sg41
F-5.056518743529505
sg42
F-6.169519769649714
sg43
F-5.070907480981604
sg44
F-6.907118712780493
sg45
F-8.206401696910754
sg46
F-7.002428892584818
sg47
F-7.225572443899027
sg48
F-7.1077894082426445
sg49
F-7.35910383652355
sg50
F-7.513254516350809
sg51
F-6.665956655963606
sg53
F-5.413193687468238
sg54
F-5.871026781093717
sg55
F-5.454866383868805
sg56
F-6.360575006412423
sg57
F-6.046917447557382
sg58
F-7.225572443899027
sg59
F-6.596963784476654
sg60
F-8.611866805018918
sg61
F-7.35910383652355
sg63
F-8.611866805018918
sg64
F-8.611866805018918
ssg24
(dp91
g10
F-8.865593998902725
sg14
F-8.865593998902725
sg73
F-1.724348876552233
sg17
F-4.029312091951246
sg19
F-1.8995698117966113
sg20
F-3.7239304424000643
sg21
F-1.2987655196943932
sg22
F-3.998059548447142
sg23
F-3.597735839839396
sg24
F-1.9488789785491152
sg25
F-4.053409643530307
sg26
F-3.998059548447142
sg27
F-4.005781594541052
sg28
F-3.7596485250021434
sg29
F-4.037280261600423
sg34
F-6.032380654846508
sg35
F-6.226536669287466
sg36
F-4.840242308167575
sg37
F-4.822542731068174
sg38
F-4.6759392568762985
sg39
F-5.015446397192665
sg40
F-4.858260813670253
sg41
F-5.176714544788788
sg42
F-8.17244681834278
sg43
F-4.994392987994833
sg44
F-7.256156086468624
sg45
F-7.073834529674669
sg46
F-7.073834529674669
sg47
F-7.766981710234615
sg48
F-7.073834529674669
sg49
F-7.256156086468624
sg50
F-6.467698726104354
sg51
F-7.256156086468624
sg52
F-6.919683849847411
sg53
F-6.380687349114724
sg54
F-6.032380654846508
sg55
F-7.766981710234615
sg56
F-7.766981710234615
sg57
F-6.786152457222888
sg58
F-6.668369421566505
sg59
F-7.256156086468624
sg60
F-7.479299637782834
sg61
F-8.17244681834278
sg63
F-7.766981710234615
sg64
F-8.865593998902725
sg65
F-8.865593998902725
ssg25
(dp92
g14
F-8.155362120328133
sg73
F-1.4682535124616198
sg17
F-3.742563826987499
sg19
F-1.4351419651928394
sg20
F-3.477871272760417
sg21
F-1.6078596066326136
sg22
F-3.639023148046659
sg23
F-3.351341075594878
sg24
F-3.958160172666326
sg25
F-3.7245453214848205
sg26
F-3.921255615730875
sg27
F-3.9964790369684624
sg28
F-4.044488256154823
sg29
F-4.044488256154823
sg34
F-5.958137542991915
sg35
F-5.9040703217216395
sg36
F-4.629001595711973
sg37
F-4.754164738665979
sg38
F-4.674122030992443
sg39
F-4.585829423846764
sg40
F-5.087309185194517
sg41
F-4.5444442076839096
sg42
F-8.155362120328133
sg43
F-4.571843181872024
sg44
F-5.71301508495893
sg45
F-7.462214939768189
sg46
F-8.155362120328133
sg47
F-4.737635436714768
sg48
F-6.902599151832766
sg49
F-7.74989701221997
sg50
F-7.239071388453979
sg51
F-5.9040703217216395
sg52
F-8.848509300888079
sg53
F-7.239071388453979
sg54
F-6.283559943426543
sg55
F-7.056749831660024
sg56
F-7.74989701221997
sg57
F-6.209451971272821
sg58
F-6.902599151832766
sg59
F-6.651284723551861
sg60
F-7.74989701221997
sg61
F-6.7690677592082436
sg63
F-8.155362120328133
ssg26
(dp93
g13
F-7.235378958526866
sg14
F-8.333991247194975
sg73
F-2.404402103805081
sg17
F-3.6705521530829084
sg19
F-1.379352382313988
sg20
F-3.436151447244064
sg21
F-1.3418948197790874
sg22
F-3.633510881402559
sg23
F-2.986883716477507
sg24
F-3.5890591188317256
sg25
F-3.718870730353716
sg26
F-3.856654432716769
sg27
F-3.769643055727139
sg28
F-4.07131137015366
sg29
F-3.8013917540417195
sg34
F-5.075894709173493
sg35
F-6.136766669858756
sg36
F-4.029926153990806
sg37
F-4.69640508746859
sg38
F-4.273548236648556
sg39
F-4.596321628911607
sg40
F-4.206856862149884
sg41
F-4.345007200630701
sg42
F-7.64084406663503
sg43
F-4.05732512817892
sg44
F-6.54223177796692
sg45
F-6.947696886075085
sg46
F-8.333991247194975
sg47
F-6.54223177796692
sg48
F-6.388081098139662
sg49
F-6.136766669858756
sg51
F-7.64084406663503
sg52
F-7.235378958526866
sg53
F-7.235378958526866
sg54
F-6.54223177796692
sg55
F-6.388081098139662
sg56
F-7.64084406663503
sg57
F-6.724553334760875
sg58
F-7.235378958526866
sg59
F-7.64084406663503
sg60
F-7.235378958526866
sg61
F-8.333991247194975
sg63
F-5.625941046092765
sg64
F-8.333991247194975
ssg27
(dp94
g14
F-7.038491100971192
sg73
F-2.1040171678405
sg17
F-3.552135910968729
sg19
F-2.325962396662601
sg20
F-3.23926358968839
sg21
F-2.542392010037462
sg22
F-3.0808575842909933
sg23
F-2.4299931248904256
sg24
F-3.308789652337
sg25
F-1.5620275490396809
sg26
F-3.5832264980387603
sg27
F-3.6262438831224513
sg28
F-3.2543014670529304
sg29
F-3.5832264980387603
sg34
F-5.0925809519158785
sg35
F-5.834518296645256
sg36
F-3.604503896486045
sg37
F-3.9782203062796295
sg38
F-4.581755328149888
sg39
F-4.671367486839575
sg40
F-4.308461993150206
sg41
F-4.308461993150206
sg43
F-4.581755328149888
sg44
F-6.750809028519411
sg45
F-8.137103389639302
sg46
F-8.137103389639302
sg48
F-8.137103389639302
sg49
F-7.038491100971192
sg50
F-8.137103389639302
sg51
F-7.038491100971192
sg52
F-7.038491100971192
sg53
F-6.5276654772052005
sg54
F-6.057661847959466
sg55
F-5.939878812303082
sg56
F-6.750809028519411
sg57
F-6.750809028519411
sg58
F-7.038491100971192
sg59
F-5.572154032177765
sg61
F-7.038491100971192
sg63
F-8.137103389639302
sg64
F-8.137103389639302
sg65
F-8.137103389639302
ssg28
(dp95
g13
F-6.71447388195184
sg14
F-8.10076824307173
sg73
F-2.2956332741552425
sg17
F-3.6234314285935247
sg19
F-3.1240345006511565
sg20
F-3.3822693717766366
sg21
F-2.6327081019365997
sg22
F-3.27245450576943
sg23
F-3.4660392548420953
sg24
F-1.2040739114490189
sg25
F-3.050912235822194
sg26
F-3.248737979152114
sg27
F-3.2409558387100588
sg28
F-3.5056483929371414
sg29
F-3.391238041759397
sg34
F-4.699570861409576
sg35
F-6.154858094016418
sg36
F-3.7967031498675614
sg37
F-4.804931377067402
sg38
F-4.188745237643585
sg39
F-3.6464209468182234
sg40
F-4.0754165523365815
sg41
F-3.896075623680765
sg42
F-8.10076824307173
sg43
F-3.98989437889842
sg44
F-6.309008773843676
sg45
F-6.71447388195184
sg46
F-6.309008773843676
sg47
F-7.407621062511786
sg48
F-8.10076824307173
sg49
F-7.407621062511786
sg50
F-7.407621062511786
sg51
F-6.309008773843676
sg52
F-7.407621062511786
sg53
F-7.407621062511786
sg54
F-6.154858094016418
sg55
F-7.407621062511786
sg56
F-5.7028729702733605
sg57
F-6.309008773843676
sg58
F-6.021326701391895
sg59
F-6.491330330637631
sg60
F-8.10076824307173
sg61
F-7.407621062511786
sg63
F-7.002155954403621
sg64
F-8.10076824307173
ssg29
(dp96
g13
F-6.741503902365677
sg14
F-7.840116191033786
sg73
F-1.5086143411400954
sg17
F-4.011474794544692
sg18
F-8.533263371593732
sg19
F-3.8793030214362085
sg20
F-1.6446909120283688
sg21
F-1.6145681525732605
sg22
F-3.483407364344195
sg23
F-3.650461449007361
sg24
F-3.073677857449573
sg25
F-3.6969814646422536
sg26
F-4.033453701263467
sg27
F-2.9237915764087723
sg28
F-3.712981805988695
sg29
F-3.7541398784822024
sg34
F-5.27516683357225
sg35
F-6.453821829913896
sg36
F-4.56297145804161
sg37
F-4.42238950742042
sg38
F-4.7046219751046365
sg39
F-4.9779153101043185
sg40
F-4.2025300313074005
sg41
F-4.406128986548641
sg42
F-7.4346510829256225
sg43
F-4.455725927688013
sg44
F-7.840116191033786
sg45
F-6.923825459159631
sg46
F-8.533263371593732
sg47
F-7.4346510829256225
sg48
F-6.741503902365677
sg49
F-8.533263371593732
sg50
F-8.533263371593732
sg51
F-6.135368098795361
sg52
F-7.840116191033786
sg53
F-7.146969010473841
sg54
F-6.741503902365677
sg55
F-7.4346510829256225
sg56
F-5.760674649353951
sg57
F-7.4346510829256225
sg58
F-8.533263371593732
sg59
F-7.146969010473841
sg60
F-7.4346510829256225
sg61
F-8.533263371593732
sg64
F-7.840116191033786
ssg30
(dp97
g37
F-2.2587824703356527
sg52
F-3.1060803307228566
sg38
F-2.12525107771113
sg41
F-2.12525107771113
sg42
F-3.1060803307228566
sg45
F-3.5115454388310208
sg20
F-1.8067973465925955
sg21
F-4.204692619390966
sg22
F-4.204692619390966
sg23
F-4.204692619390966
sg24
F-3.5115454388310208
sg57
F-1.7197859696029658
sg28
F-3.5115454388310208
sg36
F-2.5952547069568657
sg25
F-4.204692619390966
ssg31
(dp98
g44
F-1.9459101490553135
sg54
F-3.044522437723423
sg48
F-0.3364722366212129
sg22
F-3.044522437723423
sg43
F-3.044522437723423
ssg32
(dp99
g54
F0.0
ssg33
(dp100
g63
F-0.6931471805599453
sg57
F-0.6931471805599453
ssg34
(dp101
g20
F-0.1919105316242783
sg22
F-3.337293579682675
sg23
F-2.6441463991227296
sg24
F-4.25358431155683
sg25
F-3.9482026620056483
sg26
F-4.695417063835869
sg27
F-4.590056548178043
sg28
F-4.9467314921167755
sg29
F-4.813200099492253
ssg35
(dp102
g73
F-0.0010157441198354164
sg19
F-6.892641641172089
ssg36
(dp103
g15
F-8.861279226514556
sg73
F-6.463383953716186
sg17
F-5.865546952960566
sg19
F-7.762666937846447
sg20
F-3.6275003811040913
sg21
F-4.291736218169617
sg22
F-2.5799474960494573
sg23
F-4.086366265939371
sg24
F-4.863078524845359
sg25
F-2.6496756371126637
sg26
F-6.296329869053021
sg27
F-5.250361313870332
sg28
F-6.664054649178338
sg29
F-6.088690504274775
sg30
F-7.944988494640402
sg34
F-9.554426407074502
sg36
F-4.929453593790232
sg37
F-3.2000563662771517
sg38
F-2.643675619112567
sg39
F-3.4341289881235517
sg40
F-3.1118862406063035
sg41
F-3.1023774526372763
sg42
F-4.3670406012337475
sg43
F-3.6275003811040913
sg44
F-3.1948525384021247
sg45
F-4.378276674500674
sg46
F-4.401134812576723
sg47
F-3.6275003811040913
sg48
F-3.5046929518425447
sg49
F-4.174529053534043
sg50
F-4.028973467942719
sg51
F-4.0948408929303435
sg52
F-6.1532290254123465
sg53
F-2.586517205272618
sg54
F-2.7847844302219995
sg55
F-3.0105145615097104
sg56
F-3.853982833683816
sg57
F-3.2910281444828784
sg58
F-4.04909487114214
sg59
F-4.26112158235001
sg60
F-6.418932191145353
sg61
F-4.835927535779408
sg63
F-3.427557222960317
ssg37
(dp104
g33
F-10.34312861911143
sg16
F-10.34312861911143
sg73
F-3.6560200112449164
sg17
F-5.401486196502126
sg19
F-4.967850211427265
sg20
F-5.843318948781166
sg21
F-5.679689524999364
sg22
F-5.606930170716935
sg23
F-5.877220500456847
sg24
F-6.0390635259072605
sg25
F-6.265591175205711
sg26
F-6.3357954338789595
sg27
F-6.1534738770850055
sg28
F-6.168741349215794
sg29
F-6.317776928376281
sg30
F-9.649981438551485
sg31
F-8.263687077431594
sg34
F-7.298606181388007
sg36
F-3.846353628925568
sg37
F-5.225134806694675
sg38
F-2.5968279568799915
sg39
F-3.866156256221748
sg40
F-5.352696032332695
sg41
F-3.0693423012665364
sg42
F-2.9213528254667835
sg43
F-4.850067175770882
sg44
F-2.958518235934456
sg45
F-6.654249164997494
sg46
F-5.530944263739014
sg47
F-7.39868963994499
sg48
F-3.3105043580834246
sg49
F-2.5454265835947405
sg50
F-6.941931237449276
sg51
F-2.377583045981439
sg52
F-7.94523334631306
sg53
F-2.574595318185397
sg54
F-2.718509632952032
sg55
F-2.4810164074486822
sg56
F-3.740540726922094
sg57
F-1.993171347071107
sg58
F-5.255532283879046
sg59
F-4.305257699189293
sg60
F-3.8210358209412782
sg61
F-5.015252450321849
sg63
F-6.30007735127688
ssg38
(dp105
g8
F-10.178806009504447
sg9
F-10.178806009504447
sg14
F-9.485658828944501
sg16
F-7.876220916510401
sg73
F-3.3753007518961087
sg17
F-5.350492272202145
sg18
F-10.178806009504447
sg19
F-4.808167981376784
sg20
F-5.303608686303296
sg21
F-6.084461447282346
sg22
F-6.051671624459355
sg23
F-5.73615475301413
sg24
F-6.307604998596556
sg25
F-6.101268565598727
sg26
F-6.208514095952325
sg27
F-5.95929830432834
sg28
F-6.1357547416698965
sg29
F-6.118362998958028
sg30
F-10.178806009504447
sg34
F-7.134283571781024
sg36
F-4.238634756784015
sg37
F-2.6905124943450187
sg38
F-3.8928079149955823
sg39
F-5.690169639772307
sg40
F-2.1872137274363546
sg41
F-4.997022459212362
sg42
F-6.22756229092302
sg43
F-5.031311532690994
sg44
F-4.047579520021306
sg45
F-2.6387156893591217
sg46
F-3.1630935890172176
sg47
F-7.1830737359504555
sg48
F-4.388845838607193
sg49
F-2.343226762834482
sg50
F-1.6816114645948992
sg51
F-4.3294812295575875
sg52
F-8.387046540276392
sg53
F-3.0140856307325894
sg54
F-3.6835404535674385
sg55
F-2.73748561978683
sg56
F-3.9059290029582794
sg57
F-2.5970863693791384
sg58
F-6.372143519734127
sg59
F-6.246980376780121
sg60
F-4.4230637959175345
sg61
F-5.8747409163002775
sg63
F-8.569368097070347
ssg39
(dp106
g73
F-2.899936743918979
sg17
F-3.902088766399527
sg19
F-4.0639317918499405
sg20
F-4.966799503391956
sg21
F-5.0908521520619345
sg22
F-4.757078972409886
sg23
F-4.9180093392225235
sg24
F-4.654424818349803
sg25
F-4.841636360437949
sg26
F-5.232502669124961
sg27
F-5.254481575843736
sg28
F-4.595235946959472
sg29
F-4.798464188572741
sg30
F-7.674849704494165
sg34
F-5.765307199609727
sg36
F-4.351613864301722
sg37
F-2.0535434516622026
sg38
F-3.4851949624677396
sg39
F-4.1783421430276855
sg40
F-2.416053096108412
sg41
F-3.136888268199524
sg42
F-4.654424818349803
sg43
F-4.316211937250806
sg44
F-2.743979378866772
sg45
F-5.169323767503429
sg46
F-5.62715686112891
sg47
F-3.535691126482272
sg48
F-4.351613864301722
sg49
F-2.618603899145857
sg50
F-2.780748226653861
sg51
F-5.477625127157946
sg52
F-6.863919488277836
sg53
F-4.397704971501989
sg54
F-3.250003072637355
sg55
F-2.578036714156857
sg56
F-2.8346073963265903
sg57
F-4.407183715456532
sg58
F-5.347571998909748
sg59
F-5.505796004124642
sg60
F-4.307553874507692
sg61
F-4.812648823564697
sg63
F-6.422086735998797
sg64
F-8.36799688505411
ssg40
(dp107
g14
F-9.439485875486026
sg16
F-10.825780236605917
sg73
F-2.7940698612838757
sg17
F-3.769604952505507
sg19
F-2.9255141998382164
sg20
F-6.116250035293583
sg21
F-6.836796190041643
sg22
F-6.65139296671028
sg23
F-6.282485454335913
sg24
F-6.577284994556559
sg25
F-5.045036720813588
sg26
F-6.782728968771368
sg27
F-6.210659719764658
sg28
F-6.6826455102143845
sg29
F-6.748242792700198
sg30
F-8.186722906990658
sg34
F-6.549114117589863
sg36
F-3.8401384189667094
sg37
F-3.241007158993719
sg38
F-2.6069930810044366
sg39
F-4.452460447028905
sg40
F-4.128745988939433
sg41
F-3.426382153274564
sg42
F-4.551018215363979
sg43
F-4.455879253777691
sg44
F-5.522475328546841
sg45
F-5.627283205340092
sg46
F-6.748242792700198
sg47
F-7.391793032120772
sg48
F-3.259469221833454
sg49
F-3.118268042005577
sg50
F-5.300327297474134
sg51
F-2.5374971913982267
sg52
F-4.488954505459477
sg53
F-3.9001850394954496
sg54
F-2.087205044495131
sg55
F-1.8014080623438868
sg56
F-5.379042864939608
sg57
F-2.9067877484406717
sg58
F-4.101947795784709
sg59
F-4.155013915760043
sg60
F-5.370459121248216
sg61
F-3.500631278650342
sg63
F-7.270432175116504
sg64
F-10.825780236605917
ssg41
(dp108
g14
F-9.042749779782222
sg16
F-9.042749779782222
sg73
F-2.842240605739532
sg17
F-3.9613454147977594
sg19
F-2.7319228236194877
sg20
F-5.225037453825317
sg21
F-5.998227342058799
sg22
F-4.868362509886585
sg23
F-5.546242218315742
sg24
F-5.78465324176074
sg25
F-5.728563775109697
sg26
F-6.152378021886058
sg27
F-5.236087290011902
sg28
F-5.459230841326113
sg29
F-5.692845692507618
sg30
F-6.791457981175727
sg34
F-6.270161057542441
sg36
F-3.8223939547038976
sg37
F-2.3147194317467736
sg38
F-4.079905149522315
sg39
F-4.032114485685966
sg40
F-1.5756644679744796
sg41
F-3.702810738543366
sg42
F-4.705459038949732
sg43
F-4.104685178520802
sg44
F-2.1826103547417484
sg45
F-5.353870325668286
sg46
F-5.214108383293127
sg47
F-6.477800422320685
sg48
F-3.8751107368763016
sg49
F-3.472498697750544
sg50
F-2.6849075132741227
sg51
F-5.140777110207577
sg52
F-7.9441374911141125
sg53
F-3.9833243215165344
sg54
F-3.1833890733075774
sg55
F-3.6090277762279825
sg56
F-3.578917974756612
sg57
F-4.478401588314386
sg58
F-5.501790455744908
sg59
F-4.8014230272114755
sg60
F-5.341447805669729
sg61
F-5.0445490781130236
sg63
F-7.789986811286854
sg64
F-9.735896960342167
ssg42
(dp109
g73
F-2.510153432522784
sg17
F-3.1930230303244893
sg19
F-1.6172751412733724
sg20
F-6.38965324624537
sg21
F-8.286773231131251
sg22
F-6.053181009624157
sg23
F-5.8590249951832
sg24
F-6.746328190184102
sg25
F-6.089548653795032
sg26
F-6.207331689451416
sg27
F-6.746328190184102
sg28
F-7.775947607365261
sg29
F-9.38538551979936
sg34
F-6.61279679755958
sg36
F-4.052666726533992
sg37
F-3.4425861446726604
sg38
F-4.401778898091025
sg39
F-5.6011958858811
sg40
F-1.7149569976086685
sg41
F-4.703254292675141
sg42
F-4.0335273863232946
sg43
F-4.8745260132825114
sg44
F-2.203793575187496
sg45
F-4.220599545875847
sg46
F-6.746328190184102
sg47
F-7.439475370744048
sg48
F-4.502583597212991
sg49
F-3.817041016038264
sg50
F-3.8923240764588125
sg51
F-3.471882514161091
sg52
F-7.775947607365261
sg53
F-4.209235787225532
sg54
F-3.1991768958988676
sg55
F-2.6982769119328465
sg56
F-3.5447438624259626
sg57
F-4.810674541295978
sg58
F-5.919649616999634
sg59
F-6.1272889817778795
sg60
F-5.774467607155136
sg61
F-5.624185404105798
sg63
F-7.439475370744048
ssg43
(dp110
g10
F-9.134430777875833
sg13
F-8.441283597315888
sg73
F-3.1811874435880485
sg17
F-4.739981623203394
sg19
F-4.143998191097096
sg20
F-4.830365684671663
sg21
F-5.183187059294405
sg22
F-5.242610479765206
sg23
F-4.914923072699726
sg24
F-5.470869131746186
sg25
F-4.634621107545567
sg26
F-5.127097592643362
sg27
F-4.960043507980195
sg28
F-5.183187059294405
sg29
F-5.164138864323711
sg34
F-6.244059019979668
sg36
F-4.424900576563498
sg37
F-2.876763189993194
sg38
F-3.4819415976071824
sg39
F-5.056893333970113
sg40
F-2.8922075124206676
sg41
F-4.5193102610345735
sg42
F-4.816942664339522
sg43
F-2.8226959687229183
sg44
F-1.5848216127213008
sg45
F-5.420858711171525
sg46
F-7.342671308647778
sg47
F-7.748136416755942
sg48
F-5.091379510041283
sg49
F-3.1863957886951866
sg50
F-2.5090384098678764
sg51
F-6.426380576773623
sg52
F-7.524992865441733
sg53
F-4.509457964591562
sg54
F-3.6748452637316738
sg55
F-2.740840023925201
sg56
F-3.612969860013586
sg57
F-2.1286417586223303
sg58
F-4.816942664339522
sg59
F-5.998936561946683
sg60
F-4.657093963397626
sg61
F-3.9696448039523187
sg63
F-7.342671308647778
ssg44
(dp111
g14
F-10.501197045162932
sg73
F-3.5323466668209846
sg17
F-4.640410821697067
sg19
F-3.5008625848877024
sg20
F-7.205360179158603
sg21
F-8.421755503483096
sg22
F-6.890279132518708
sg23
F-7.410154591804616
sg24
F-7.610825287266768
sg25
F-7.243100507141451
sg26
F-9.114902684043042
sg27
F-7.556758065996492
sg28
F-8.421755503483096
sg29
F-7.8621397155476735
sg31
F-9.402584756494823
sg34
F-7.793146844060723
sg36
F-5.451341037913395
sg37
F-3.747759126565153
sg38
F-2.3429671282034397
sg39
F-3.4493414222070387
sg40
F-3.187976658072631
sg41
F-3.4053038240654008
sg42
F-3.667088306349094
sg43
F-4.107606291212301
sg44
F-5.936848853695096
sg45
F-6.7876249784586244
sg46
F-6.197131951958763
sg47
F-7.45667460743951
sg48
F-3.4178091975376375
sg49
F-3.017952629089083
sg50
F-2.679553918922951
sg51
F-1.4248453131900667
sg52
F-6.812317591048997
sg53
F-2.884913483582548
sg54
F-2.880982274588477
sg55
F-3.149397176105156
sg56
F-6.475845354427784
sg57
F-2.797286835546621
sg58
F-7.067209840677786
sg59
F-4.099279848435747
sg60
F-8.891759132728833
sg61
F-4.711236874265679
sg63
F-4.504744956543911
ssg45
(dp112
g14
F-8.35267225924779
sg16
F-9.045819439807735
sg73
F-2.9059348875814797
sg17
F-3.830883682198749
sg19
F-3.443700618928034
sg20
F-6.050087166253744
sg21
F-7.659525078687844
sg22
F-5.519458915191573
sg23
F-5.382257793678089
sg24
F-6.966377898127899
sg25
F-6.966377898127899
sg26
F-7.2540599705796796
sg27
F-5.67852360982126
sg28
F-8.35267225924779
sg29
F-6.647924167009364
sg30
F-7.947207151139625
sg34
F-7.2540599705796796
sg36
F-2.662312804923729
sg37
F-2.1935768707558565
sg38
F-4.300887311444485
sg39
F-4.902684713416202
sg40
F-1.6427583487176438
sg41
F-4.579911321153151
sg42
F-6.15544768191157
sg43
F-5.43490152716351
sg44
F-3.039466280206002
sg45
F-5.332247373103427
sg46
F-5.549311878341254
sg47
F-6.560912790019734
sg48
F-4.54600976947747
sg49
F-4.651370285135296
sg50
F-1.663695074070222
sg51
F-5.356939985693798
sg52
F-5.580083537008008
sg53
F-3.312478162909989
sg54
F-4.309620991413239
sg55
F-3.620869422326332
sg56
F-3.629719037603315
sg57
F-2.9432608451941658
sg58
F-5.1337964343795885
sg59
F-5.611832235322589
sg60
F-4.5240308627586945
sg61
F-5.239156950037415
sg63
F-6.743234346813689
ssg46
(dp113
g5
F-8.382289428951436
sg9
F-8.382289428951436
sg73
F-2.08702342751179
sg17
F-3.0940223982569006
sg19
F-3.6549016102390954
sg20
F-5.491917671055271
sg22
F-5.8973827791634355
sg23
F-4.855928904335275
sg24
F-6.772851516517336
sg25
F-7.283677140283326
sg26
F-8.382289428951436
sg27
F-5.984394156153066
sg28
F-7.283677140283326
sg29
F-6.772851516517336
sg34
F-5.674239227849226
sg36
F-3.4406470063421315
sg37
F-2.876957893019073
sg38
F-4.356937738216287
sg39
F-2.2619920100004856
sg40
F-1.6742053450983665
sg41
F-3.84968993579818
sg42
F-3.7771192429633444
sg43
F-4.255155043906345
sg44
F-2.712408505970916
sg45
F-5.20423559860349
sg46
F-6.772851516517336
sg47
F-6.9959950678315455
sg48
F-4.916553526151709
sg49
F-4.287944866729335
sg50
F-2.9796120470791565
sg51
F-5.20423559860349
sg52
F-5.674239227849226
sg53
F-3.951472630108122
sg54
F-2.61084830582142
sg55
F-4.162781723775329
sg56
F-3.9049526144732294
sg57
F-3.951472630108122
sg58
F-5.014993598964962
sg59
F-4.98109204728928
sg60
F-4.553648032462341
sg61
F-6.185064851615216
sg63
F-8.382289428951436
ssg47
(dp114
g73
F-3.6664997384845504
sg17
F-3.699836158752142
sg19
F-6.3910792415379705
sg20
F-5.292466952869861
sg21
F-6.167935690223761
sg22
F-5.697932060978025
sg23
F-5.985614133429807
sg24
F-7.777373602657861
sg25
F-7.777373602657861
sg26
F-6.678761313989752
sg27
F-7.084226422097916
sg28
F-7.777373602657861
sg29
F-6.678761313989752
sg34
F-7.777373602657861
sg36
F-5.831463453602548
sg37
F-1.2973290407312084
sg38
F-4.311637699858135
sg39
F-5.831463453602548
sg40
F-2.1109469145454294
sg41
F-3.8653505972297153
sg42
F-5.474788509663815
sg43
F-3.6342388762663287
sg44
F-3.5726809832668955
sg45
F-6.3910792415379705
sg46
F-5.831463453602548
sg47
F-5.474788509663815
sg48
F-4.445169092482658
sg49
F-5.292466952869861
sg50
F-3.095242375533642
sg51
F-4.832934623491421
sg52
F-2.695969237673398
sg53
F-2.6012238700840324
sg54
F-2.1074926796773417
sg55
F-3.1924061239872894
sg56
F-3.699836158752142
sg57
F-4.781641329103871
sg58
F-5.379478329859491
sg59
F-4.832934623491421
sg60
F-5.831463453602548
sg61
F-5.580149025321642
sg63
F-6.678761313989752
ssg48
(dp115
g13
F-9.773549695421735
sg73
F-3.2935051334950827
sg17
F-4.04020841852399
sg19
F-3.4087989385698245
sg20
F-6.554673870553535
sg21
F-6.218201633932322
sg22
F-6.682507242063419
sg23
F-6.777817421867745
sg24
F-9.08040251486179
sg25
F-7.208600337960199
sg26
F-8.387255334301845
sg27
F-7.065499494319526
sg28
F-8.387255334301845
sg29
F-8.164111782987636
sg30
F-7.375654422623365
sg34
F-7.47096460242769
sg36
F-4.379922149069374
sg37
F-2.021644362343126
sg38
F-3.730916861739354
sg39
F-4.216721633722198
sg40
F-2.0203554255373946
sg41
F-4.103668772441216
sg42
F-4.564063542580315
sg43
F-3.7696626283151966
sg44
F-1.7907919934106225
sg45
F-6.554673870553535
sg46
F-6.190030756965625
sg47
F-5.881729397311109
sg48
F-3.005056483773106
sg49
F-3.812544355798462
sg50
F-2.4576661909119504
sg51
F-5.881729397311109
sg52
F-5.989360061503475
sg53
F-2.530036720756254
sg54
F-2.651489813792593
sg55
F-5.158429178580477
sg56
F-4.033756783242501
sg57
F-4.59176614512965
sg58
F-5.614666612062064
sg59
F-5.129158796280363
sg60
F-5.416840868732144
sg61
F-5.923402093711677
sg63
F-8.164111782987636
ssg49
(dp116
g15
F-10.05216614490749
sg73
F-2.6825654243810817
sg17
F-4.238035613082424
sg19
F-3.965391417995184
sg20
F-4.9832619426872595
sg21
F-8.260406675679436
sg22
F-5.925031759862399
sg23
F-6.1809651339995995
sg24
F-7.218952800851275
sg25
F-7.007643707184068
sg26
F-7.10772716574105
sg27
F-6.5258056202913295
sg28
F-7.854941567571271
sg29
F-7.854941567571271
sg30
F-9.359018964347545
sg31
F-10.05216614490749
sg34
F-7.0564338713535
sg36
F-2.3406171652783447
sg37
F-2.5819420090075247
sg38
F-4.618444141353251
sg39
F-5.068559523199155
sg40
F-1.8976659697555487
sg41
F-4.009533311225109
sg42
F-5.761706703759099
sg43
F-5.215884237956013
sg44
F-1.6034659499365538
sg45
F-5.9090314185159585
sg46
F-5.477455166404108
sg47
F-7.3441159438052805
sg48
F-5.342635943595156
sg49
F-2.75236877814933
sg50
F-2.7152292311998734
sg51
F-5.832658439731384
sg52
F-7.854941567571271
sg53
F-3.8598036554326187
sg54
F-3.0195418838794845
sg55
F-5.273042651795961
sg56
F-3.090870098997324
sg57
F-3.74406770339796
sg58
F-5.893283061547819
sg59
F-4.940178356550947
sg60
F-4.396174334087638
sg61
F-6.202018543197432
sg63
F-7.218952800851275
ssg50
(dp117
g73
F-4.280700033586751
sg17
F-5.122179695742967
sg19
F-5.020888361691867
sg20
F-7.4096511509269645
sg21
F-10.405383424480956
sg22
F-6.93964752168123
sg23
F-6.576742027991861
sg24
F-8.795945512046856
sg25
F-8.795945512046856
sg26
F-9.71223624392101
sg27
F-7.360860986757532
sg28
F-8.795945512046856
sg29
F-6.555235822770897
sg31
F-10.405383424480956
sg34
F-7.697333223378745
sg36
F-4.745901208721334
sg37
F-4.217119301398366
sg38
F-3.415126923987075
sg39
F-4.057994214824945
sg40
F-5.522581501894585
sg41
F-3.3304202265149123
sg42
F-4.0685576933345144
sg43
F-3.138556076960365
sg44
F-4.844701793465428
sg45
F-6.908875863014476
sg46
F-4.446958731451174
sg47
F-6.493360419052809
sg48
F-2.843741678892176
sg49
F-3.0364130222861627
sg50
F-3.4132869970650677
sg51
F-1.7865365793382184
sg52
F-8.007488151682585
sg53
F-3.3860867707659112
sg54
F-2.7744368435904967
sg55
F-1.5632123758692404
sg56
F-3.025751271871403
sg57
F-3.5363689738152493
sg58
F-3.307834573866163
sg59
F-4.006788489945748
sg60
F-6.76779726475457
sg61
F-3.696079084222657
sg63
F-7.515011666584791
ssg51
(dp118
g32
F-10.300012819074817
sg12
F-10.300012819074817
sg13
F-10.300012819074817
sg14
F-9.201400530406708
sg16
F-9.606865638514872
sg73
F-2.528524058957202
sg17
F-3.0248404996220466
sg19
F-4.130402086583362
sg20
F-6.274661128339669
sg21
F-7.255490381351395
sg22
F-4.541111045197538
sg23
F-6.803505257608338
sg24
F-7.9974277260807725
sg25
F-8.220571277394981
sg26
F-7.355573839908378
sg27
F-6.967808308899614
sg28
F-8.690574906640718
sg29
F-7.409641061178654
sg31
F-9.201400530406708
sg34
F-5.617881591950598
sg36
F-3.9578914003536667
sg37
F-2.9828004107149795
sg38
F-3.092893962867062
sg39
F-5.3371681888149105
sg40
F-2.593849848875243
sg41
F-2.287994579915757
sg42
F-2.6941228180216967
sg43
F-3.7263326521141726
sg44
F-3.1100906483290105
sg45
F-5.555080690711568
sg46
F-5.0689042022202315
sg47
F-6.4081925209641915
sg48
F-5.063570856244869
sg49
F-2.69561647027848
sg50
F-3.203291440580058
sg51
F-4.619840210057751
sg52
F-6.932716989088344
sg53
F-4.2455734728054475
sg54
F-2.630517568067124
sg55
F-5.250156811825281
sg56
F-4.346769484787034
sg57
F-2.0307682978917616
sg58
F-6.274661128339669
sg59
F-3.767678526852469
sg60
F-6.023346700058763
sg61
F-6.773652294458657
sg63
F-7.815106169286818
ssg52
(dp119
g73
F-2.885617928909624
sg17
F-7.292337176173877
sg19
F-4.347898197007437
sg20
F-6.193724887505768
sg21
F-5.906042815053986
sg22
F-6.193724887505768
sg23
F-6.599189995613932
sg24
F-7.292337176173877
sg25
F-5.682899263739777
sg26
F-6.599189995613932
sg27
F-6.599189995613932
sg29
F-6.599189995613932
sg34
F-6.599189995613932
sg36
F-5.095112598837658
sg37
F-4.989752083179832
sg38
F-3.826601273374151
sg39
F-4.807430526385877
sg40
F-5.346427027118564
sg41
F-5.682899263739777
sg42
F-5.500577706945823
sg43
F-4.459123832117661
sg44
F-5.500577706945823
sg45
F-6.599189995613932
sg47
F-6.193724887505768
sg48
F-4.114283345825932
sg49
F-2.5301632413761213
sg50
F-4.5842869750716675
sg51
F-5.212895634494042
sg52
F-5.906042815053986
sg53
F-4.114283345825932
sg54
F-4.2478147384504545
sg55
F-5.095112598837658
sg56
F-0.47232081149974703
sg57
F-2.9356283494842854
sg58
F-5.095112598837658
sg59
F-6.193724887505768
sg60
F-7.292337176173877
sg61
F-7.292337176173877
sg63
F-6.599189995613932
ssg53
(dp120
g13
F-10.014178834378756
sg16
F-7.4492294769172185
sg73
F-2.960593107185079
sg17
F-4.730975105640766
sg19
F-4.293867057771344
sg20
F-5.201994479006338
sg21
F-5.839791564483118
sg22
F-5.683445494092424
sg23
F-4.233435318586426
sg24
F-8.627884473258865
sg25
F-6.969656396655332
sg26
F-7.0697398552123145
sg27
F-6.681974324203551
sg28
F-6.756082296357273
sg29
F-5.936641390473036
sg34
F-7.306128633276545
sg36
F-4.300446028869386
sg37
F-2.1459245688581428
sg38
F-3.811643317190833
sg39
F-5.350739740266688
sg40
F-2.5623565978508256
sg41
F-3.793588664279016
sg42
F-5.123829706157001
sg43
F-5.470884052108751
sg44
F-3.0239223338848746
sg45
F-4.2776065368995635
sg46
F-5.887044449333664
sg47
F-7.0697398552123145
sg48
F-4.589228816897353
sg49
F-2.398387762342922
sg50
F-2.705636036839565
sg51
F-4.65288666866933
sg52
F-7.306128633276545
sg53
F-3.023001947257546
sg54
F-2.418288916660217
sg55
F-2.2251384327212786
sg56
F-3.5295435987435035
sg57
F-3.13276753073622
sg58
F-5.350739740266688
sg59
F-5.26058864327239
sg60
F-3.0576333912271862
sg61
F-5.657470007689163
sg63
F-7.375121504763497
ssg54
(dp121
g3
F-10.48355001802591
sg33
F-10.48355001802591
sg13
F-9.790402837465967
sg14
F-9.790402837465967
sg16
F-6.819988371896265
sg73
F-2.1502796647706024
sg17
F-3.3180565429650657
sg18
F-10.48355001802591
sg19
F-3.0713896830807066
sg20
F-6.5323062994444845
sg21
F-6.47621683279344
sg22
F-6.51325810447379
sg23
F-6.11410216555889
sg24
F-7.439027580302489
sg25
F-7.844492688410653
sg26
F-6.0891008633534724
sg27
F-5.296164212185157
sg28
F-8.404108476346076
sg29
F-7.264674193157711
sg30
F-8.874112105591811
sg34
F-6.006213203547705
sg36
F-3.4509257569979055
sg37
F-3.7609202231704635
sg38
F-3.370407909318824
sg39
F-5.3017664677338265
sg40
F-1.9481240583486144
sg41
F-4.553960874636017
sg42
F-5.3477515809756495
sg43
F-5.279543330949116
sg44
F-3.1120607228116346
sg45
F-3.2181202947719587
sg46
F-4.467392858327558
sg47
F-7.439027580302489
sg48
F-4.293234612172764
sg49
F-4.387725455593687
sg50
F-2.619514358953461
sg51
F-4.994612291869225
sg52
F-5.783069652233495
sg53
F-3.38765679692838
sg54
F-3.071993730214748
sg55
F-4.412812290023422
sg56
F-3.801441420576103
sg57
F-1.891620480495657
sg58
F-4.678415049109423
sg59
F-4.469834861983109
sg60
F-3.5308213734010434
sg61
F-5.868429501184652
sg63
F-8.085654745227542
ssg55
(dp122
g3
F-10.464730587215707
sg13
F-10.464730587215707
sg14
F-9.771583406655761
sg16
F-9.078436226095816
sg73
F-2.359121184915811
sg17
F-4.252124491464188
sg19
F-4.0301840684282535
sg20
F-5.202040398310821
sg21
F-7.63151724315949
sg22
F-5.383326222231244
sg23
F-5.346736774798952
sg24
F-5.668940041618966
sg25
F-5.620543500757115
sg26
F-5.677238844433661
sg27
F-5.2607239001389114
sg28
F-5.737342768503367
sg29
F-5.6525462318432895
sg34
F-6.160665494011537
sg36
F-3.650187689955749
sg37
F-2.641484896530184
sg38
F-3.277073423100751
sg39
F-5.494917287639707
sg40
F-1.7330713856789477
sg41
F-3.984686025289054
sg42
F-2.6374896854628957
sg43
F-5.089452179531542
sg44
F-2.8568525139371994
sg45
F-6.275075845189281
sg46
F-4.044735659068564
sg47
F-7.2458547623475065
sg48
F-4.001701130295037
sg49
F-4.855258792030747
sg50
F-2.1540696813084823
sg51
F-4.81928368957247
sg52
F-7.420208149492284
sg53
F-4.638730479835257
sg54
F-3.2000004092858396
sg55
F-4.207062999333068
sg56
F-3.8648600880028705
sg57
F-3.010010637851706
sg58
F-6.4042875766692875
sg59
F-3.592602485876721
sg60
F-3.616725312639344
sg61
F-6.881211648759597
sg63
F-8.162145494221662
ssg56
(dp123
g73
F-4.355002911200789
sg17
F-6.042558602898842
sg19
F-6.943345148237031
sg20
F-7.205709412704523
sg22
F-7.716535036470513
sg23
F-7.898856593264467
sg24
F-7.898856593264467
sg25
F-8.815147325138623
sg26
F-7.428852964018732
sg27
F-7.428852964018732
sg28
F-8.815147325138623
sg29
F-8.815147325138623
sg34
F-7.716535036470513
sg36
F-4.343508531775054
sg37
F-3.379244295638023
sg38
F-4.110131804180815
sg39
F-3.4824285318732535
sg40
F-3.1264784882924697
sg41
F-3.605661172297202
sg42
F-2.80879416553689
sg43
F-5.05394720944506
sg44
F-1.767195415663202
sg45
F-7.716535036470513
sg46
F-6.6750811616423515
sg47
F-8.122000144578678
sg48
F-3.3470871840034913
sg49
F-2.981799646127778
sg50
F-6.289418680830368
sg51
F-2.240769077870396
sg52
F-6.735705783458787
sg53
F-2.7713275476967127
sg54
F-2.554610294828031
sg55
F-2.209849404190421
sg56
F-5.981933981082407
sg57
F-2.174618110040884
sg58
F-6.5638555265321274
sg59
F-6.617922747802403
sg60
F-6.6750811616423515
sg61
F-4.798764304386234
sg63
F-6.617922747802403
ssg57
(dp124
g4
F-10.453831921962378
sg6
F-9.355219633294267
sg14
F-9.760684741402432
sg16
F-10.453831921962378
sg73
F-2.5082764937088875
sg17
F-3.751871555959837
sg19
F-2.868043100230343
sg20
F-6.647169432192057
sg21
F-7.8888825645008405
sg22
F-6.294948838602705
sg23
F-6.842914009318153
sg24
F-6.764952467848441
sg25
F-6.716162303679009
sg26
F-9.067537560842487
sg27
F-6.764952467848441
sg28
F-7.8888825645008405
sg29
F-7.745781720860167
sg31
F-9.067537560842487
sg34
F-6.842914009318153
sg36
F-3.002590236974701
sg37
F-2.5068605642687865
sg38
F-3.9302696158128647
sg39
F-4.6980897083754645
sg40
F-1.8447890769162605
sg41
F-4.794349706202756
sg42
F-6.428480231227228
sg43
F-4.829814415775038
sg44
F-2.0788937781270107
sg45
F-2.9068578044458504
sg46
F-6.047112674698123
sg47
F-7.814774592347119
sg48
F-4.559429087697526
sg49
F-4.237225820877512
sg50
F-2.632589838438819
sg51
F-5.649810877229121
sg52
F-7.563460164066212
sg53
F-3.8297666941624833
sg54
F-3.2444916653594675
sg55
F-2.876198089359649
sg56
F-3.759269863441282
sg57
F-3.702730453025617
sg58
F-4.3379397964793425
sg59
F-5.519357988831685
sg60
F-3.784333832104498
sg61
F-5.6916579871646205
sg63
F-7.563460164066212
ssg58
(dp125
g7
F-8.84404789894249
sg73
F-2.93054489330422
sg17
F-5.317687374326329
sg19
F-4.8737559853903685
sg20
F-6.204990569327232
sg21
F-5.8483156253885
sg22
F-4.972846888034599
sg23
F-6.541462805948445
sg24
F-7.0522884297144355
sg25
F-7.745435610274381
sg26
F-6.204990569327232
sg27
F-5.753005445584175
sg28
F-7.745435610274381
sg29
F-6.204990569327232
sg34
F-6.764606357262655
sg36
F-3.586552526914709
sg37
F-3.2021408280043766
sg38
F-4.290171007341949
sg39
F-4.366711084464284
sg40
F-2.295828796180118
sg41
F-4.2489280488079
sg42
F-5.8483156253885
sg43
F-4.700913172550957
sg44
F-1.387593343766281
sg45
F-4.581368021901175
sg46
F-4.716913513897399
sg47
F-7.4577535378226
sg48
F-3.1204627969901098
sg49
F-4.5955526568931315
sg50
F-2.404697527842392
sg51
F-3.7260540865257354
sg52
F-7.4577535378226
sg53
F-3.602300883882848
sg54
F-2.053950663428586
sg55
F-3.0851461250652097
sg56
F-4.83671471371002
sg57
F-3.6965534221290373
sg58
F-4.500242477088807
sg59
F-6.44615262614412
sg60
F-8.84404789894249
sg61
F-6.44615262614412
sg63
F-6.279098541480954
ssg59
(dp126
g8
F-9.047821442478408
sg73
F-3.330793741072186
sg17
F-5.9567789891200915
sg19
F-4.936947578305096
sg20
F-4.605170185988091
sg21
F-6.214608098422191
sg22
F-4.9873784319319885
sg23
F-1.8526341222996991
sg24
F-7.9492091538102985
sg25
F-5.789724904456926
sg26
F-7.9492091538102985
sg27
F-6.968379900798572
sg28
F-5.384259796348761
sg29
F-6.157449684582243
sg34
F-5.869767612130462
sg36
F-4.9873784319319885
sg37
F-2.619716169793812
sg38
F-2.9678882473828176
sg39
F-4.356473560249264
sg40
F-1.661970364353199
sg41
F-3.900326965664955
sg42
F-5.384259796348761
sg43
F-5.176620431570517
sg44
F-1.404338535401207
sg45
F-5.410235282752022
sg46
F-6.562914792690408
sg47
F-5.2191800459893125
sg48
F-3.311249144999216
sg49
F-4.743756349274238
sg50
F-4.165019519892037
sg51
F-5.058837395914133
sg52
F-7.661527081358517
sg53
F-4.432700925637149
sg54
F-3.8007973703179214
sg55
F-4.858166700451982
sg56
F-5.715616932303204
sg57
F-4.653372287805969
sg58
F-4.462853963807836
sg59
F-6.103382463311967
sg60
F-5.241158952708088
sg61
F-6.562914792690408
sg63
F-7.256061973250353
ssg60
(dp127
g10
F-8.765926513729443
sg14
F-8.765926513729443
sg73
F-1.9063116100752415
sg17
F-2.9759663428321903
sg19
F-2.5276018886899356
sg20
F-6.463341420735397
sg22
F-4.981736879811183
sg23
F-5.239565989113282
sg24
F-7.667314225061334
sg25
F-6.368031240931073
sg26
F-6.820016364674131
sg27
F-6.463341420735397
sg28
F-6.568701936393224
sg29
F-7.3796321526095525
sg30
F-8.765926513729443
sg34
F-5.932713169673227
sg36
F-3.24047357459766
sg37
F-4.371477359057005
sg38
F-3.7289739113158142
sg39
F-4.435193173443112
sg40
F-3.7619802077839846
sg41
F-4.740574822994295
sg42
F-4.1708066635948535
sg43
F-4.776942467165169
sg44
F-4.347085905932846
sg45
F-5.331939309244297
sg46
F-7.3796321526095525
sg47
F-6.368031240931073
sg48
F-3.6360277988063703
sg49
F-3.7687142399653286
sg50
F-3.9701359681327024
sg51
F-2.7114871674600733
sg52
F-5.2694189522629635
sg53
F-2.6951887857269536
sg54
F-1.9296672364523764
sg55
F-4.383899879055562
sg56
F-4.874106215618817
sg57
F-1.9657564454272438
sg58
F-4.383899879055562
sg59
F-5.630432297800294
sg60
F-8.765926513729443
sg61
F-6.686484972049608
sg63
F-5.821487534563003
ssg61
(dp128
g13
F-8.639764743804419
sg14
F-8.639764743804419
sg73
F-2.6114862235737197
sg17
F-4.139955073474153
sg19
F-2.2732942960729803
sg20
F-5.931714542702208
sg21
F-6.4425401664681985
sg22
F-5.461710913456472
sg23
F-5.695325764637977
sg24
F-6.4425401664681985
sg25
F-6.00070741418916
sg26
F-7.030326831370318
sg27
F-3.939284378012002
sg28
F-7.253470382684528
sg29
F-3.705290810673726
sg34
F-6.848005274576363
sg36
F-3.1425965185112164
sg37
F-3.269126715676755
sg38
F-3.223664341599998
sg39
F-4.151128374072278
sg40
F-3.3822693717766366
sg41
F-4.528890879631107
sg42
F-5.0844166823150045
sg43
F-4.596713475969868
sg44
F-3.558360378819955
sg45
F-5.0844166823150045
sg46
F-6.241869471006048
sg47
F-6.560323202124582
sg48
F-1.6504294778298583
sg49
F-3.492270266990965
sg50
F-4.811123347315323
sg51
F-5.749392985908253
sg52
F-6.560323202124582
sg53
F-2.6284975694002566
sg54
F-3.7125110586472134
sg55
F-4.512630358759327
sg56
F-4.768563732896527
sg57
F-2.2181424759979
sg58
F-5.4208889189362175
sg59
F-5.595242306080995
sg60
F-3.3022266641031
sg61
F-5.806551399748202
sg63
F-7.030326831370318
ssg62
(dp129
g37
F-2.639057329615259
sg38
F-2.639057329615259
sg39
F-1.540445040947149
sg40
F-2.639057329615259
sg43
F-2.639057329615259
sg21
F-2.639057329615259
sg22
F-1.9459101490553135
sg23
F-1.9459101490553135
sg28
F-1.9459101490553135
ssg63
(dp130
g73
F-3.002952521527478
sg17
F-4.5980016965094785
sg19
F-6.543911845564792
sg20
F-5.291148877069424
sg21
F-6.543911845564792
sg22
F-5.445299556896683
sg23
F-5.039834448788518
sg24
F-6.543911845564792
sg25
F-5.627621113690637
sg26
F-7.237059026124737
sg27
F-6.543911845564792
sg28
F-6.543911845564792
sg29
F-7.237059026124737
sg36
F-5.627621113690637
sg37
F-2.1130950467214786
sg38
F-5.445299556896683
sg39
F-5.291148877069424
sg40
F-1.748121299968051
sg41
F-5.157617484444901
sg42
F-5.850764665004847
sg43
F-5.291148877069424
sg44
F-2.3618617029235858
sg45
F-1.0570423724721647
sg46
F-6.543911845564792
sg47
F-5.445299556896683
sg48
F-4.672109668663201
sg49
F-4.059005195776792
sg50
F-3.681710964635324
sg51
F-7.237059026124737
sg52
F-6.138446737456627
sg53
F-5.627621113690637
sg54
F-4.529008825022527
sg55
F-3.9789624881032553
sg56
F-4.9344739331306915
sg57
F-5.291148877069424
sg58
F-5.627621113690637
sg59
F-6.543911845564792
sg60
F-3.9789624881032553
sg61
F-6.543911845564792
sg63
F-4.018183201256536
ssg64
(dp131
g73
F-0.5596157879354228
sg17
F-2.639057329615259
sg59
F-1.0296194171811581
ssg65
(dp132
g55
F-1.0986122886681098
sg73
F-1.0986122886681098
sg11
F-1.0986122886681098
sssS'min_prob'
p133
F-10.825780236605917
s.